; Listing generated by Microsoft (R) Optimizing Compiler Version 16.00.40219.01 

	TITLE	C:\openFrameworks\addons\ofxVTerrain\libs\src\vtlib\core\Structure3d.cpp
	.686P
	.XMM
	include listing.inc
	.model	flat

INCLUDELIB MSVCRT
INCLUDELIB OLDNAMES

PUBLIC	?value@?$integral_constant@_N$0A@@tr1@std@@2_NB	; std::tr1::integral_constant<bool,0>::value
PUBLIC	?value@?$integral_constant@_N$00@tr1@std@@2_NB	; std::tr1::integral_constant<bool,1>::value
PUBLIC	?value@?$integral_constant@I$0A@@tr1@std@@2IB	; std::tr1::integral_constant<unsigned int,0>::value
PUBLIC	?_Rank@?$_Arithmetic_traits@_N@std@@2HB		; std::_Arithmetic_traits<bool>::_Rank
PUBLIC	?_Rank@?$_Arithmetic_traits@D@std@@2HB		; std::_Arithmetic_traits<char>::_Rank
PUBLIC	?_Rank@?$_Arithmetic_traits@C@std@@2HB		; std::_Arithmetic_traits<signed char>::_Rank
PUBLIC	?_Rank@?$_Arithmetic_traits@E@std@@2HB		; std::_Arithmetic_traits<unsigned char>::_Rank
PUBLIC	?_Rank@?$_Arithmetic_traits@F@std@@2HB		; std::_Arithmetic_traits<short>::_Rank
PUBLIC	?_Rank@?$_Arithmetic_traits@G@std@@2HB		; std::_Arithmetic_traits<unsigned short>::_Rank
PUBLIC	?_Rank@?$_Arithmetic_traits@H@std@@2HB		; std::_Arithmetic_traits<int>::_Rank
PUBLIC	?_Rank@?$_Arithmetic_traits@I@std@@2HB		; std::_Arithmetic_traits<unsigned int>::_Rank
PUBLIC	?_Rank@?$_Arithmetic_traits@J@std@@2HB		; std::_Arithmetic_traits<long>::_Rank
PUBLIC	?_Rank@?$_Arithmetic_traits@K@std@@2HB		; std::_Arithmetic_traits<unsigned long>::_Rank
PUBLIC	?_Rank@?$_Arithmetic_traits@_J@std@@2HB		; std::_Arithmetic_traits<__int64>::_Rank
PUBLIC	?_Rank@?$_Arithmetic_traits@_K@std@@2HB		; std::_Arithmetic_traits<unsigned __int64>::_Rank
PUBLIC	?_Rank@?$_Arithmetic_traits@M@std@@2HB		; std::_Arithmetic_traits<float>::_Rank
PUBLIC	?_Rank@?$_Arithmetic_traits@N@std@@2HB		; std::_Arithmetic_traits<double>::_Rank
PUBLIC	?_Rank@?$_Arithmetic_traits@O@std@@2HB		; std::_Arithmetic_traits<long double>::_Rank
PUBLIC	?collate@?$_Locbase@H@std@@2HB			; std::_Locbase<int>::collate
PUBLIC	?ctype@?$_Locbase@H@std@@2HB			; std::_Locbase<int>::ctype
PUBLIC	?monetary@?$_Locbase@H@std@@2HB			; std::_Locbase<int>::monetary
PUBLIC	?numeric@?$_Locbase@H@std@@2HB			; std::_Locbase<int>::numeric
PUBLIC	?time@?$_Locbase@H@std@@2HB			; std::_Locbase<int>::time
PUBLIC	?messages@?$_Locbase@H@std@@2HB			; std::_Locbase<int>::messages
PUBLIC	?all@?$_Locbase@H@std@@2HB			; std::_Locbase<int>::all
PUBLIC	?none@?$_Locbase@H@std@@2HB			; std::_Locbase<int>::none
PUBLIC	?skipws@?$_Iosb@H@std@@2W4_Fmtflags@12@B	; std::_Iosb<int>::skipws
PUBLIC	?unitbuf@?$_Iosb@H@std@@2W4_Fmtflags@12@B	; std::_Iosb<int>::unitbuf
PUBLIC	?uppercase@?$_Iosb@H@std@@2W4_Fmtflags@12@B	; std::_Iosb<int>::uppercase
PUBLIC	?showbase@?$_Iosb@H@std@@2W4_Fmtflags@12@B	; std::_Iosb<int>::showbase
PUBLIC	?showpoint@?$_Iosb@H@std@@2W4_Fmtflags@12@B	; std::_Iosb<int>::showpoint
PUBLIC	?showpos@?$_Iosb@H@std@@2W4_Fmtflags@12@B	; std::_Iosb<int>::showpos
PUBLIC	?left@?$_Iosb@H@std@@2W4_Fmtflags@12@B		; std::_Iosb<int>::left
PUBLIC	?right@?$_Iosb@H@std@@2W4_Fmtflags@12@B		; std::_Iosb<int>::right
PUBLIC	?internal@?$_Iosb@H@std@@2W4_Fmtflags@12@B	; std::_Iosb<int>::internal
PUBLIC	?dec@?$_Iosb@H@std@@2W4_Fmtflags@12@B		; std::_Iosb<int>::dec
PUBLIC	?oct@?$_Iosb@H@std@@2W4_Fmtflags@12@B		; std::_Iosb<int>::oct
PUBLIC	?hex@?$_Iosb@H@std@@2W4_Fmtflags@12@B		; std::_Iosb<int>::hex
PUBLIC	?scientific@?$_Iosb@H@std@@2W4_Fmtflags@12@B	; std::_Iosb<int>::scientific
PUBLIC	?fixed@?$_Iosb@H@std@@2W4_Fmtflags@12@B		; std::_Iosb<int>::fixed
PUBLIC	?hexfloat@?$_Iosb@H@std@@2W4_Fmtflags@12@B	; std::_Iosb<int>::hexfloat
PUBLIC	?boolalpha@?$_Iosb@H@std@@2W4_Fmtflags@12@B	; std::_Iosb<int>::boolalpha
PUBLIC	?_Stdio@?$_Iosb@H@std@@2W4_Fmtflags@12@B	; std::_Iosb<int>::_Stdio
PUBLIC	?adjustfield@?$_Iosb@H@std@@2W4_Fmtflags@12@B	; std::_Iosb<int>::adjustfield
PUBLIC	?basefield@?$_Iosb@H@std@@2W4_Fmtflags@12@B	; std::_Iosb<int>::basefield
PUBLIC	?floatfield@?$_Iosb@H@std@@2W4_Fmtflags@12@B	; std::_Iosb<int>::floatfield
PUBLIC	?goodbit@?$_Iosb@H@std@@2W4_Iostate@12@B	; std::_Iosb<int>::goodbit
PUBLIC	?eofbit@?$_Iosb@H@std@@2W4_Iostate@12@B		; std::_Iosb<int>::eofbit
PUBLIC	?failbit@?$_Iosb@H@std@@2W4_Iostate@12@B	; std::_Iosb<int>::failbit
PUBLIC	?badbit@?$_Iosb@H@std@@2W4_Iostate@12@B		; std::_Iosb<int>::badbit
PUBLIC	?_Hardfail@?$_Iosb@H@std@@2W4_Iostate@12@B	; std::_Iosb<int>::_Hardfail
PUBLIC	?in@?$_Iosb@H@std@@2W4_Openmode@12@B		; std::_Iosb<int>::in
PUBLIC	?out@?$_Iosb@H@std@@2W4_Openmode@12@B		; std::_Iosb<int>::out
PUBLIC	?ate@?$_Iosb@H@std@@2W4_Openmode@12@B		; std::_Iosb<int>::ate
PUBLIC	?app@?$_Iosb@H@std@@2W4_Openmode@12@B		; std::_Iosb<int>::app
PUBLIC	?trunc@?$_Iosb@H@std@@2W4_Openmode@12@B		; std::_Iosb<int>::trunc
PUBLIC	?_Nocreate@?$_Iosb@H@std@@2W4_Openmode@12@B	; std::_Iosb<int>::_Nocreate
PUBLIC	?_Noreplace@?$_Iosb@H@std@@2W4_Openmode@12@B	; std::_Iosb<int>::_Noreplace
PUBLIC	?binary@?$_Iosb@H@std@@2W4_Openmode@12@B	; std::_Iosb<int>::binary
PUBLIC	?beg@?$_Iosb@H@std@@2W4_Seekdir@12@B		; std::_Iosb<int>::beg
PUBLIC	?cur@?$_Iosb@H@std@@2W4_Seekdir@12@B		; std::_Iosb<int>::cur
PUBLIC	?end@?$_Iosb@H@std@@2W4_Seekdir@12@B		; std::_Iosb<int>::end
PUBLIC	?_VBITS@?$vector@_NV?$allocator@_N@std@@@std@@2HB ; std::vector<bool,std::allocator<bool> >::_VBITS
PUBLIC	?_EEM_DS@?$deque@V?$basic_string@DU?$char_traits@D@std@@V?$allocator@D@2@@std@@V?$allocator@V?$basic_string@DU?$char_traits@D@std@@V?$allocator@D@2@@std@@@2@@std@@2HB ; std::deque<std::basic_string<char,std::char_traits<char>,std::allocator<char> >,std::allocator<std::basic_string<char,std::char_traits<char>,std::allocator<char> > > >::_EEM_DS
PUBLIC	?s_bMaterialsLoaded@vtStructure3d@@1_NA		; vtStructure3d::s_bMaterialsLoaded
PUBLIC	?npos@?$basic_string@DU?$char_traits@D@std@@V?$allocator@D@2@@std@@2IB ; std::basic_string<char,std::char_traits<char>,std::allocator<char> >::npos
_BSS	SEGMENT
?s_bMaterialsLoaded@vtStructure3d@@1_NA DB 01H DUP (?)	; vtStructure3d::s_bMaterialsLoaded
_BSS	ENDS
;	COMDAT ?npos@?$basic_string@DU?$char_traits@D@std@@V?$allocator@D@2@@std@@2IB
CONST	SEGMENT
?npos@?$basic_string@DU?$char_traits@D@std@@V?$allocator@D@2@@std@@2IB DD 0ffffffffH ; std::basic_string<char,std::char_traits<char>,std::allocator<char> >::npos
CONST	ENDS
;	COMDAT ?_EEM_DS@?$deque@V?$basic_string@DU?$char_traits@D@std@@V?$allocator@D@2@@std@@V?$allocator@V?$basic_string@DU?$char_traits@D@std@@V?$allocator@D@2@@std@@@2@@std@@2HB
CONST	SEGMENT
?_EEM_DS@?$deque@V?$basic_string@DU?$char_traits@D@std@@V?$allocator@D@2@@std@@V?$allocator@V?$basic_string@DU?$char_traits@D@std@@V?$allocator@D@2@@std@@@2@@std@@2HB DD 01H ; std::deque<std::basic_string<char,std::char_traits<char>,std::allocator<char> >,std::allocator<std::basic_string<char,std::char_traits<char>,std::allocator<char> > > >::_EEM_DS
CONST	ENDS
;	COMDAT ?_VBITS@?$vector@_NV?$allocator@_N@std@@@std@@2HB
CONST	SEGMENT
?_VBITS@?$vector@_NV?$allocator@_N@std@@@std@@2HB DD 020H ; std::vector<bool,std::allocator<bool> >::_VBITS
CONST	ENDS
CONST	SEGMENT
_PI	DQ	0400921fb54442d18r		; 3.14159
_LN_2	DQ	03fe62e42fefa39efr		; 0.693147
_WGS_84_RADIUS_EQUATOR DQ 0415854a640000000r	; 6.37814e+006
_WGS_84_RADIUS_POLAR DQ 041583fc4141bda51r	; 6.35675e+006
CONST	ENDS
;	COMDAT ?end@?$_Iosb@H@std@@2W4_Seekdir@12@B
CONST	SEGMENT
?end@?$_Iosb@H@std@@2W4_Seekdir@12@B DD 02H		; std::_Iosb<int>::end
CONST	ENDS
;	COMDAT ?cur@?$_Iosb@H@std@@2W4_Seekdir@12@B
CONST	SEGMENT
?cur@?$_Iosb@H@std@@2W4_Seekdir@12@B DD 01H		; std::_Iosb<int>::cur
CONST	ENDS
;	COMDAT ?beg@?$_Iosb@H@std@@2W4_Seekdir@12@B
CONST	SEGMENT
?beg@?$_Iosb@H@std@@2W4_Seekdir@12@B DD 00H		; std::_Iosb<int>::beg
CONST	ENDS
;	COMDAT ?binary@?$_Iosb@H@std@@2W4_Openmode@12@B
CONST	SEGMENT
?binary@?$_Iosb@H@std@@2W4_Openmode@12@B DD 020H	; std::_Iosb<int>::binary
CONST	ENDS
;	COMDAT ?_Noreplace@?$_Iosb@H@std@@2W4_Openmode@12@B
CONST	SEGMENT
?_Noreplace@?$_Iosb@H@std@@2W4_Openmode@12@B DD 080H	; std::_Iosb<int>::_Noreplace
CONST	ENDS
;	COMDAT ?_Nocreate@?$_Iosb@H@std@@2W4_Openmode@12@B
CONST	SEGMENT
?_Nocreate@?$_Iosb@H@std@@2W4_Openmode@12@B DD 040H	; std::_Iosb<int>::_Nocreate
CONST	ENDS
;	COMDAT ?trunc@?$_Iosb@H@std@@2W4_Openmode@12@B
CONST	SEGMENT
?trunc@?$_Iosb@H@std@@2W4_Openmode@12@B DD 010H		; std::_Iosb<int>::trunc
CONST	ENDS
;	COMDAT ?app@?$_Iosb@H@std@@2W4_Openmode@12@B
CONST	SEGMENT
?app@?$_Iosb@H@std@@2W4_Openmode@12@B DD 08H		; std::_Iosb<int>::app
CONST	ENDS
;	COMDAT ?ate@?$_Iosb@H@std@@2W4_Openmode@12@B
CONST	SEGMENT
?ate@?$_Iosb@H@std@@2W4_Openmode@12@B DD 04H		; std::_Iosb<int>::ate
CONST	ENDS
;	COMDAT ?out@?$_Iosb@H@std@@2W4_Openmode@12@B
CONST	SEGMENT
?out@?$_Iosb@H@std@@2W4_Openmode@12@B DD 02H		; std::_Iosb<int>::out
CONST	ENDS
;	COMDAT ?in@?$_Iosb@H@std@@2W4_Openmode@12@B
CONST	SEGMENT
?in@?$_Iosb@H@std@@2W4_Openmode@12@B DD 01H		; std::_Iosb<int>::in
CONST	ENDS
;	COMDAT ?_Hardfail@?$_Iosb@H@std@@2W4_Iostate@12@B
CONST	SEGMENT
?_Hardfail@?$_Iosb@H@std@@2W4_Iostate@12@B DD 010H	; std::_Iosb<int>::_Hardfail
CONST	ENDS
;	COMDAT ?badbit@?$_Iosb@H@std@@2W4_Iostate@12@B
CONST	SEGMENT
?badbit@?$_Iosb@H@std@@2W4_Iostate@12@B DD 04H		; std::_Iosb<int>::badbit
CONST	ENDS
;	COMDAT ?failbit@?$_Iosb@H@std@@2W4_Iostate@12@B
CONST	SEGMENT
?failbit@?$_Iosb@H@std@@2W4_Iostate@12@B DD 02H		; std::_Iosb<int>::failbit
CONST	ENDS
;	COMDAT ?eofbit@?$_Iosb@H@std@@2W4_Iostate@12@B
CONST	SEGMENT
?eofbit@?$_Iosb@H@std@@2W4_Iostate@12@B DD 01H		; std::_Iosb<int>::eofbit
CONST	ENDS
;	COMDAT ?goodbit@?$_Iosb@H@std@@2W4_Iostate@12@B
CONST	SEGMENT
?goodbit@?$_Iosb@H@std@@2W4_Iostate@12@B DD 00H		; std::_Iosb<int>::goodbit
CONST	ENDS
;	COMDAT ?floatfield@?$_Iosb@H@std@@2W4_Fmtflags@12@B
CONST	SEGMENT
?floatfield@?$_Iosb@H@std@@2W4_Fmtflags@12@B DD 03000H	; std::_Iosb<int>::floatfield
CONST	ENDS
;	COMDAT ?basefield@?$_Iosb@H@std@@2W4_Fmtflags@12@B
CONST	SEGMENT
?basefield@?$_Iosb@H@std@@2W4_Fmtflags@12@B DD 0e00H	; std::_Iosb<int>::basefield
CONST	ENDS
;	COMDAT ?adjustfield@?$_Iosb@H@std@@2W4_Fmtflags@12@B
CONST	SEGMENT
?adjustfield@?$_Iosb@H@std@@2W4_Fmtflags@12@B DD 01c0H	; std::_Iosb<int>::adjustfield
CONST	ENDS
;	COMDAT ?_Stdio@?$_Iosb@H@std@@2W4_Fmtflags@12@B
CONST	SEGMENT
?_Stdio@?$_Iosb@H@std@@2W4_Fmtflags@12@B DD 08000H	; std::_Iosb<int>::_Stdio
CONST	ENDS
;	COMDAT ?boolalpha@?$_Iosb@H@std@@2W4_Fmtflags@12@B
CONST	SEGMENT
?boolalpha@?$_Iosb@H@std@@2W4_Fmtflags@12@B DD 04000H	; std::_Iosb<int>::boolalpha
CONST	ENDS
;	COMDAT ?hexfloat@?$_Iosb@H@std@@2W4_Fmtflags@12@B
CONST	SEGMENT
?hexfloat@?$_Iosb@H@std@@2W4_Fmtflags@12@B DD 03000H	; std::_Iosb<int>::hexfloat
CONST	ENDS
;	COMDAT ?fixed@?$_Iosb@H@std@@2W4_Fmtflags@12@B
CONST	SEGMENT
?fixed@?$_Iosb@H@std@@2W4_Fmtflags@12@B DD 02000H	; std::_Iosb<int>::fixed
CONST	ENDS
;	COMDAT ?scientific@?$_Iosb@H@std@@2W4_Fmtflags@12@B
CONST	SEGMENT
?scientific@?$_Iosb@H@std@@2W4_Fmtflags@12@B DD 01000H	; std::_Iosb<int>::scientific
CONST	ENDS
;	COMDAT ?hex@?$_Iosb@H@std@@2W4_Fmtflags@12@B
CONST	SEGMENT
?hex@?$_Iosb@H@std@@2W4_Fmtflags@12@B DD 0800H		; std::_Iosb<int>::hex
CONST	ENDS
;	COMDAT ?oct@?$_Iosb@H@std@@2W4_Fmtflags@12@B
CONST	SEGMENT
?oct@?$_Iosb@H@std@@2W4_Fmtflags@12@B DD 0400H		; std::_Iosb<int>::oct
CONST	ENDS
;	COMDAT ?dec@?$_Iosb@H@std@@2W4_Fmtflags@12@B
CONST	SEGMENT
?dec@?$_Iosb@H@std@@2W4_Fmtflags@12@B DD 0200H		; std::_Iosb<int>::dec
CONST	ENDS
;	COMDAT ?internal@?$_Iosb@H@std@@2W4_Fmtflags@12@B
CONST	SEGMENT
?internal@?$_Iosb@H@std@@2W4_Fmtflags@12@B DD 0100H	; std::_Iosb<int>::internal
CONST	ENDS
;	COMDAT ?right@?$_Iosb@H@std@@2W4_Fmtflags@12@B
CONST	SEGMENT
?right@?$_Iosb@H@std@@2W4_Fmtflags@12@B DD 080H		; std::_Iosb<int>::right
CONST	ENDS
;	COMDAT ?left@?$_Iosb@H@std@@2W4_Fmtflags@12@B
CONST	SEGMENT
?left@?$_Iosb@H@std@@2W4_Fmtflags@12@B DD 040H		; std::_Iosb<int>::left
CONST	ENDS
;	COMDAT ?showpos@?$_Iosb@H@std@@2W4_Fmtflags@12@B
CONST	SEGMENT
?showpos@?$_Iosb@H@std@@2W4_Fmtflags@12@B DD 020H	; std::_Iosb<int>::showpos
CONST	ENDS
;	COMDAT ?showpoint@?$_Iosb@H@std@@2W4_Fmtflags@12@B
CONST	SEGMENT
?showpoint@?$_Iosb@H@std@@2W4_Fmtflags@12@B DD 010H	; std::_Iosb<int>::showpoint
CONST	ENDS
;	COMDAT ?showbase@?$_Iosb@H@std@@2W4_Fmtflags@12@B
CONST	SEGMENT
?showbase@?$_Iosb@H@std@@2W4_Fmtflags@12@B DD 08H	; std::_Iosb<int>::showbase
CONST	ENDS
;	COMDAT ?uppercase@?$_Iosb@H@std@@2W4_Fmtflags@12@B
CONST	SEGMENT
?uppercase@?$_Iosb@H@std@@2W4_Fmtflags@12@B DD 04H	; std::_Iosb<int>::uppercase
CONST	ENDS
;	COMDAT ?unitbuf@?$_Iosb@H@std@@2W4_Fmtflags@12@B
CONST	SEGMENT
?unitbuf@?$_Iosb@H@std@@2W4_Fmtflags@12@B DD 02H	; std::_Iosb<int>::unitbuf
CONST	ENDS
;	COMDAT ?skipws@?$_Iosb@H@std@@2W4_Fmtflags@12@B
CONST	SEGMENT
?skipws@?$_Iosb@H@std@@2W4_Fmtflags@12@B DD 01H		; std::_Iosb<int>::skipws
CONST	ENDS
;	COMDAT ?none@?$_Locbase@H@std@@2HB
CONST	SEGMENT
?none@?$_Locbase@H@std@@2HB DD 00H			; std::_Locbase<int>::none
CONST	ENDS
;	COMDAT ?all@?$_Locbase@H@std@@2HB
CONST	SEGMENT
?all@?$_Locbase@H@std@@2HB DD 03fH			; std::_Locbase<int>::all
CONST	ENDS
;	COMDAT ?messages@?$_Locbase@H@std@@2HB
CONST	SEGMENT
?messages@?$_Locbase@H@std@@2HB DD 020H			; std::_Locbase<int>::messages
CONST	ENDS
;	COMDAT ?time@?$_Locbase@H@std@@2HB
CONST	SEGMENT
?time@?$_Locbase@H@std@@2HB DD 010H			; std::_Locbase<int>::time
CONST	ENDS
;	COMDAT ?numeric@?$_Locbase@H@std@@2HB
CONST	SEGMENT
?numeric@?$_Locbase@H@std@@2HB DD 08H			; std::_Locbase<int>::numeric
CONST	ENDS
;	COMDAT ?monetary@?$_Locbase@H@std@@2HB
CONST	SEGMENT
?monetary@?$_Locbase@H@std@@2HB DD 04H			; std::_Locbase<int>::monetary
CONST	ENDS
;	COMDAT ?ctype@?$_Locbase@H@std@@2HB
CONST	SEGMENT
?ctype@?$_Locbase@H@std@@2HB DD 02H			; std::_Locbase<int>::ctype
CONST	ENDS
;	COMDAT ?collate@?$_Locbase@H@std@@2HB
CONST	SEGMENT
?collate@?$_Locbase@H@std@@2HB DD 01H			; std::_Locbase<int>::collate
CONST	ENDS
;	COMDAT ?_Rank@?$_Arithmetic_traits@O@std@@2HB
CONST	SEGMENT
?_Rank@?$_Arithmetic_traits@O@std@@2HB DD 09H		; std::_Arithmetic_traits<long double>::_Rank
CONST	ENDS
;	COMDAT ?_Rank@?$_Arithmetic_traits@N@std@@2HB
CONST	SEGMENT
?_Rank@?$_Arithmetic_traits@N@std@@2HB DD 08H		; std::_Arithmetic_traits<double>::_Rank
CONST	ENDS
;	COMDAT ?_Rank@?$_Arithmetic_traits@M@std@@2HB
CONST	SEGMENT
?_Rank@?$_Arithmetic_traits@M@std@@2HB DD 07H		; std::_Arithmetic_traits<float>::_Rank
CONST	ENDS
;	COMDAT ?_Rank@?$_Arithmetic_traits@_K@std@@2HB
CONST	SEGMENT
?_Rank@?$_Arithmetic_traits@_K@std@@2HB DD 06H		; std::_Arithmetic_traits<unsigned __int64>::_Rank
CONST	ENDS
;	COMDAT ?_Rank@?$_Arithmetic_traits@_J@std@@2HB
CONST	SEGMENT
?_Rank@?$_Arithmetic_traits@_J@std@@2HB DD 06H		; std::_Arithmetic_traits<__int64>::_Rank
CONST	ENDS
;	COMDAT ?_Rank@?$_Arithmetic_traits@K@std@@2HB
CONST	SEGMENT
?_Rank@?$_Arithmetic_traits@K@std@@2HB DD 05H		; std::_Arithmetic_traits<unsigned long>::_Rank
CONST	ENDS
;	COMDAT ?_Rank@?$_Arithmetic_traits@J@std@@2HB
CONST	SEGMENT
?_Rank@?$_Arithmetic_traits@J@std@@2HB DD 05H		; std::_Arithmetic_traits<long>::_Rank
CONST	ENDS
;	COMDAT ?_Rank@?$_Arithmetic_traits@I@std@@2HB
CONST	SEGMENT
?_Rank@?$_Arithmetic_traits@I@std@@2HB DD 04H		; std::_Arithmetic_traits<unsigned int>::_Rank
CONST	ENDS
;	COMDAT ?_Rank@?$_Arithmetic_traits@H@std@@2HB
CONST	SEGMENT
?_Rank@?$_Arithmetic_traits@H@std@@2HB DD 04H		; std::_Arithmetic_traits<int>::_Rank
CONST	ENDS
;	COMDAT ?_Rank@?$_Arithmetic_traits@G@std@@2HB
CONST	SEGMENT
?_Rank@?$_Arithmetic_traits@G@std@@2HB DD 03H		; std::_Arithmetic_traits<unsigned short>::_Rank
CONST	ENDS
;	COMDAT ?_Rank@?$_Arithmetic_traits@F@std@@2HB
CONST	SEGMENT
?_Rank@?$_Arithmetic_traits@F@std@@2HB DD 03H		; std::_Arithmetic_traits<short>::_Rank
CONST	ENDS
;	COMDAT ?_Rank@?$_Arithmetic_traits@E@std@@2HB
CONST	SEGMENT
?_Rank@?$_Arithmetic_traits@E@std@@2HB DD 02H		; std::_Arithmetic_traits<unsigned char>::_Rank
CONST	ENDS
;	COMDAT ?_Rank@?$_Arithmetic_traits@C@std@@2HB
CONST	SEGMENT
?_Rank@?$_Arithmetic_traits@C@std@@2HB DD 02H		; std::_Arithmetic_traits<signed char>::_Rank
CONST	ENDS
;	COMDAT ?_Rank@?$_Arithmetic_traits@D@std@@2HB
CONST	SEGMENT
?_Rank@?$_Arithmetic_traits@D@std@@2HB DD 02H		; std::_Arithmetic_traits<char>::_Rank
CONST	ENDS
;	COMDAT ?_Rank@?$_Arithmetic_traits@_N@std@@2HB
CONST	SEGMENT
?_Rank@?$_Arithmetic_traits@_N@std@@2HB DD 01H		; std::_Arithmetic_traits<bool>::_Rank
CONST	ENDS
;	COMDAT ?value@?$integral_constant@I$0A@@tr1@std@@2IB
CONST	SEGMENT
?value@?$integral_constant@I$0A@@tr1@std@@2IB DD 00H	; std::tr1::integral_constant<unsigned int,0>::value
CONST	ENDS
;	COMDAT ?value@?$integral_constant@_N$00@tr1@std@@2_NB
CONST	SEGMENT
?value@?$integral_constant@_N$00@tr1@std@@2_NB DB 01H	; std::tr1::integral_constant<bool,1>::value
CONST	ENDS
;	COMDAT ?value@?$integral_constant@_N$0A@@tr1@std@@2_NB
CONST	SEGMENT
?value@?$integral_constant@_N$0A@@tr1@std@@2_NB DB 00H	; std::tr1::integral_constant<bool,0>::value
CONST	ENDS
PUBLIC	_sqrtf
EXTRN	__fltused:DWORD
EXTRN	__CIsqrt:PROC
; Function compile flags: /Ogtp
;	COMDAT _sqrtf
_TEXT	SEGMENT
tv69 = 8						; size = 4
__X$ = 8						; size = 4
_sqrtf	PROC						; COMDAT
; File c:\program files (x86)\microsoft visual studio 10.0\vc\include\math.h
; Line 434
	push	ebp
	mov	ebp, esp
	fld	DWORD PTR __X$[ebp]
	call	__CIsqrt
	fstp	DWORD PTR tv69[ebp]
	fld	DWORD PTR tv69[ebp]
	pop	ebp
	ret	0
_sqrtf	ENDP
_TEXT	ENDS
PUBLIC	??_7bad_alloc@std@@6B@				; std::bad_alloc::`vftable'
PUBLIC	??0bad_alloc@std@@QAE@PBD@Z			; std::bad_alloc::bad_alloc
PUBLIC	??_R4bad_alloc@std@@6B@				; std::bad_alloc::`RTTI Complete Object Locator'
PUBLIC	??_R0?AVbad_alloc@std@@@8			; std::bad_alloc `RTTI Type Descriptor'
PUBLIC	??_R3bad_alloc@std@@8				; std::bad_alloc::`RTTI Class Hierarchy Descriptor'
PUBLIC	??_R2bad_alloc@std@@8				; std::bad_alloc::`RTTI Base Class Array'
PUBLIC	??_R1A@?0A@EA@bad_alloc@std@@8			; std::bad_alloc::`RTTI Base Class Descriptor at (0,-1,0,64)'
PUBLIC	??_R1A@?0A@EA@exception@std@@8			; std::exception::`RTTI Base Class Descriptor at (0,-1,0,64)'
PUBLIC	??_R0?AVexception@std@@@8			; std::exception `RTTI Type Descriptor'
PUBLIC	??_R3exception@std@@8				; std::exception::`RTTI Class Hierarchy Descriptor'
PUBLIC	??_R2exception@std@@8				; std::exception::`RTTI Base Class Array'
EXTRN	__imp_??0exception@std@@QAE@ABQBD@Z:PROC
EXTRN	??_7type_info@@6B@:QWORD			; type_info::`vftable'
EXTRN	??_Ebad_alloc@std@@UAEPAXI@Z:PROC		; std::bad_alloc::`vector deleting destructor'
EXTRN	?what@exception@std@@UBEPBDXZ:PROC		; std::exception::what
;	COMDAT ??_R2exception@std@@8
; File c:\program files (x86)\microsoft visual studio 10.0\vc\include\exception
rdata$r	SEGMENT
??_R2exception@std@@8 DD FLAT:??_R1A@?0A@EA@exception@std@@8 ; std::exception::`RTTI Base Class Array'
rdata$r	ENDS
;	COMDAT ??_R3exception@std@@8
rdata$r	SEGMENT
??_R3exception@std@@8 DD 00H				; std::exception::`RTTI Class Hierarchy Descriptor'
	DD	00H
	DD	01H
	DD	FLAT:??_R2exception@std@@8
rdata$r	ENDS
;	COMDAT ??_R0?AVexception@std@@@8
_DATA	SEGMENT
??_R0?AVexception@std@@@8 DD FLAT:??_7type_info@@6B@	; std::exception `RTTI Type Descriptor'
	DD	00H
	DB	'.?AVexception@std@@', 00H
_DATA	ENDS
;	COMDAT ??_R1A@?0A@EA@exception@std@@8
rdata$r	SEGMENT
??_R1A@?0A@EA@exception@std@@8 DD FLAT:??_R0?AVexception@std@@@8 ; std::exception::`RTTI Base Class Descriptor at (0,-1,0,64)'
	DD	00H
	DD	00H
	DD	0ffffffffH
	DD	00H
	DD	040H
	DD	FLAT:??_R3exception@std@@8
rdata$r	ENDS
;	COMDAT ??_R1A@?0A@EA@bad_alloc@std@@8
rdata$r	SEGMENT
??_R1A@?0A@EA@bad_alloc@std@@8 DD FLAT:??_R0?AVbad_alloc@std@@@8 ; std::bad_alloc::`RTTI Base Class Descriptor at (0,-1,0,64)'
	DD	01H
	DD	00H
	DD	0ffffffffH
	DD	00H
	DD	040H
	DD	FLAT:??_R3bad_alloc@std@@8
rdata$r	ENDS
;	COMDAT ??_R2bad_alloc@std@@8
rdata$r	SEGMENT
??_R2bad_alloc@std@@8 DD FLAT:??_R1A@?0A@EA@bad_alloc@std@@8 ; std::bad_alloc::`RTTI Base Class Array'
	DD	FLAT:??_R1A@?0A@EA@exception@std@@8
rdata$r	ENDS
;	COMDAT ??_R3bad_alloc@std@@8
rdata$r	SEGMENT
??_R3bad_alloc@std@@8 DD 00H				; std::bad_alloc::`RTTI Class Hierarchy Descriptor'
	DD	00H
	DD	02H
	DD	FLAT:??_R2bad_alloc@std@@8
rdata$r	ENDS
;	COMDAT ??_R0?AVbad_alloc@std@@@8
_DATA	SEGMENT
??_R0?AVbad_alloc@std@@@8 DD FLAT:??_7type_info@@6B@	; std::bad_alloc `RTTI Type Descriptor'
	DD	00H
	DB	'.?AVbad_alloc@std@@', 00H
_DATA	ENDS
;	COMDAT ??_R4bad_alloc@std@@6B@
rdata$r	SEGMENT
??_R4bad_alloc@std@@6B@ DD 00H				; std::bad_alloc::`RTTI Complete Object Locator'
	DD	00H
	DD	00H
	DD	FLAT:??_R0?AVbad_alloc@std@@@8
	DD	FLAT:??_R3bad_alloc@std@@8
rdata$r	ENDS
;	COMDAT ??_7bad_alloc@std@@6B@
CONST	SEGMENT
??_7bad_alloc@std@@6B@ DD FLAT:??_R4bad_alloc@std@@6B@	; std::bad_alloc::`vftable'
	DD	FLAT:??_Ebad_alloc@std@@UAEPAXI@Z
	DD	FLAT:?what@exception@std@@UBEPBDXZ
; Function compile flags: /Ogtp
CONST	ENDS
;	COMDAT ??0bad_alloc@std@@QAE@PBD@Z
_TEXT	SEGMENT
__Message$ = 8						; size = 4
??0bad_alloc@std@@QAE@PBD@Z PROC			; std::bad_alloc::bad_alloc, COMDAT
; _this$ = ecx
; Line 345
	push	ebp
	mov	ebp, esp
	push	esi
	lea	eax, DWORD PTR __Message$[ebp]
	push	eax
	mov	esi, ecx
	call	DWORD PTR __imp_??0exception@std@@QAE@ABQBD@Z
	mov	DWORD PTR [esi], OFFSET ??_7bad_alloc@std@@6B@
; Line 346
	mov	eax, esi
	pop	esi
	pop	ebp
	ret	4
??0bad_alloc@std@@QAE@PBD@Z ENDP			; std::bad_alloc::bad_alloc
_TEXT	ENDS
PUBLIC	??1bad_alloc@std@@UAE@XZ			; std::bad_alloc::~bad_alloc
EXTRN	__imp_??1exception@std@@UAE@XZ:PROC
; Function compile flags: /Ogtp
;	COMDAT ??1bad_alloc@std@@UAE@XZ
_TEXT	SEGMENT
??1bad_alloc@std@@UAE@XZ PROC				; std::bad_alloc::~bad_alloc, COMDAT
; _this$ = ecx
; Line 354
	mov	DWORD PTR [ecx], OFFSET ??_7bad_alloc@std@@6B@
; Line 355
	jmp	DWORD PTR __imp_??1exception@std@@UAE@XZ
??1bad_alloc@std@@UAE@XZ ENDP				; std::bad_alloc::~bad_alloc
_TEXT	ENDS
EXTRN	??3@YAXPAX@Z:PROC				; operator delete
; Function compile flags: /Ogtp
;	COMDAT ??_Gbad_alloc@std@@UAEPAXI@Z
_TEXT	SEGMENT
___flags$ = 8						; size = 4
??_Gbad_alloc@std@@UAEPAXI@Z PROC			; std::bad_alloc::`scalar deleting destructor', COMDAT
; _this$ = ecx
	push	ebp
	mov	ebp, esp
	push	esi
	mov	esi, ecx
	mov	DWORD PTR [esi], OFFSET ??_7bad_alloc@std@@6B@
	call	DWORD PTR __imp_??1exception@std@@UAE@XZ
	test	BYTE PTR ___flags$[ebp], 1
	je	SHORT $LN6@scalar
	push	esi
	call	??3@YAXPAX@Z				; operator delete
	add	esp, 4
$LN6@scalar:
	mov	eax, esi
	pop	esi
	pop	ebp
	ret	4
??_Gbad_alloc@std@@UAEPAXI@Z ENDP			; std::bad_alloc::`scalar deleting destructor'
_TEXT	ENDS
PUBLIC	??2@YAPAXIPAX@Z					; operator new
; Function compile flags: /Ogtp
;	COMDAT ??2@YAPAXIPAX@Z
_TEXT	SEGMENT
___formal$ = 8						; size = 4
__Where$ = 12						; size = 4
??2@YAPAXIPAX@Z PROC					; operator new, COMDAT
; File c:\program files (x86)\microsoft visual studio 10.0\vc\include\new
; Line 56
	push	ebp
	mov	ebp, esp
; Line 57
	mov	eax, DWORD PTR __Where$[ebp]
; Line 58
	pop	ebp
	ret	0
??2@YAPAXIPAX@Z ENDP					; operator new
_TEXT	ENDS
PUBLIC	??3@YAXPAX0@Z					; operator delete
; Function compile flags: /Ogtp
;	COMDAT ??3@YAXPAX0@Z
_TEXT	SEGMENT
___formal$ = 8						; size = 4
___formal$ = 12						; size = 4
??3@YAXPAX0@Z PROC					; operator delete, COMDAT
; Line 62
	ret	0
??3@YAXPAX0@Z ENDP					; operator delete
_TEXT	ENDS
PUBLIC	?compare@?$char_traits@D@std@@SAHPBD0I@Z	; std::char_traits<char>::compare
; Function compile flags: /Ogtp
;	COMDAT ?compare@?$char_traits@D@std@@SAHPBD0I@Z
_TEXT	SEGMENT
__First1$ = 8						; size = 4
__First2$ = 12						; size = 4
__Count$ = 16						; size = 4
?compare@?$char_traits@D@std@@SAHPBD0I@Z PROC		; std::char_traits<char>::compare, COMDAT
; File c:\program files (x86)\microsoft visual studio 10.0\vc\include\iosfwd
; Line 485
	push	ebp
	mov	ebp, esp
; Line 486
	mov	ecx, DWORD PTR __First2$[ebp]
	mov	edx, DWORD PTR __First1$[ebp]
	push	esi
	mov	esi, DWORD PTR __Count$[ebp]
	push	edi
	cmp	esi, 4
	jb	SHORT $LN11@compare
$LL4@compare:
	mov	eax, DWORD PTR [edx]
	cmp	eax, DWORD PTR [ecx]
	jne	SHORT $LN5@compare
	sub	esi, 4
	add	ecx, 4
	add	edx, 4
	cmp	esi, 4
	jae	SHORT $LL4@compare
$LN11@compare:
	test	esi, esi
	je	SHORT $LN6@compare
$LN5@compare:
	movzx	eax, BYTE PTR [edx]
	movzx	edi, BYTE PTR [ecx]
	sub	eax, edi
	jne	SHORT $LN7@compare
	cmp	esi, 1
	jbe	SHORT $LN6@compare
	movzx	eax, BYTE PTR [edx+1]
	movzx	edi, BYTE PTR [ecx+1]
	sub	eax, edi
	jne	SHORT $LN7@compare
	cmp	esi, 2
	jbe	SHORT $LN6@compare
	movzx	eax, BYTE PTR [edx+2]
	movzx	edi, BYTE PTR [ecx+2]
	sub	eax, edi
	jne	SHORT $LN7@compare
	cmp	esi, 3
	jbe	SHORT $LN6@compare
	movzx	eax, BYTE PTR [edx+3]
	movzx	ecx, BYTE PTR [ecx+3]
	sub	eax, ecx
$LN7@compare:
	sar	eax, 31					; 0000001fH
	pop	edi
	or	eax, 1
	pop	esi
; Line 487
	pop	ebp
	ret	0
$LN6@compare:
	pop	edi
; Line 486
	xor	eax, eax
	pop	esi
; Line 487
	pop	ebp
	ret	0
?compare@?$char_traits@D@std@@SAHPBD0I@Z ENDP		; std::char_traits<char>::compare
_TEXT	ENDS
PUBLIC	?length@?$char_traits@D@std@@SAIPBD@Z		; std::char_traits<char>::length
; Function compile flags: /Ogtp
;	COMDAT ?length@?$char_traits@D@std@@SAIPBD@Z
_TEXT	SEGMENT
__First$ = 8						; size = 4
?length@?$char_traits@D@std@@SAIPBD@Z PROC		; std::char_traits<char>::length, COMDAT
; Line 490
	push	ebp
	mov	ebp, esp
; Line 491
	mov	eax, DWORD PTR __First$[ebp]
	lea	edx, DWORD PTR [eax+1]
	npad	7
$LL3@length:
	mov	cl, BYTE PTR [eax]
	inc	eax
	test	cl, cl
	jne	SHORT $LL3@length
	sub	eax, edx
; Line 492
	pop	ebp
	ret	0
?length@?$char_traits@D@std@@SAIPBD@Z ENDP		; std::char_traits<char>::length
_TEXT	ENDS
PUBLIC	?copy@?$char_traits@D@std@@SAPADPADPBDI@Z	; std::char_traits<char>::copy
EXTRN	_memcpy:PROC
; Function compile flags: /Ogtp
;	COMDAT ?copy@?$char_traits@D@std@@SAPADPADPBDI@Z
_TEXT	SEGMENT
__First1$ = 8						; size = 4
__First2$ = 12						; size = 4
__Count$ = 16						; size = 4
?copy@?$char_traits@D@std@@SAPADPADPBDI@Z PROC		; std::char_traits<char>::copy, COMDAT
; Line 496
	push	ebp
	mov	ebp, esp
; Line 498
	pop	ebp
; Line 497
	jmp	_memcpy
?copy@?$char_traits@D@std@@SAPADPADPBDI@Z ENDP		; std::char_traits<char>::copy
_TEXT	ENDS
PUBLIC	?_Copy_s@?$char_traits@D@std@@SAPADPADIPBDI@Z	; std::char_traits<char>::_Copy_s
EXTRN	__imp__memcpy_s:PROC
; Function compile flags: /Ogtp
;	COMDAT ?_Copy_s@?$char_traits@D@std@@SAPADPADIPBDI@Z
_TEXT	SEGMENT
__First1$ = 8						; size = 4
__Size_in_bytes$ = 12					; size = 4
__First2$ = 16						; size = 4
__Count$ = 20						; size = 4
?_Copy_s@?$char_traits@D@std@@SAPADPADIPBDI@Z PROC	; std::char_traits<char>::_Copy_s, COMDAT
; Line 503
	push	ebp
	mov	ebp, esp
; Line 504
	mov	eax, DWORD PTR __Count$[ebp]
	mov	ecx, DWORD PTR __First2$[ebp]
	mov	edx, DWORD PTR __Size_in_bytes$[ebp]
	push	esi
	mov	esi, DWORD PTR __First1$[ebp]
	push	eax
	push	ecx
	push	edx
	push	esi
	call	DWORD PTR __imp__memcpy_s
	add	esp, 16					; 00000010H
; Line 505
	mov	eax, esi
	pop	esi
; Line 506
	pop	ebp
	ret	0
?_Copy_s@?$char_traits@D@std@@SAPADPADIPBDI@Z ENDP	; std::char_traits<char>::_Copy_s
_TEXT	ENDS
PUBLIC	?find@?$char_traits@D@std@@SAPBDPBDIABD@Z	; std::char_traits<char>::find
EXTRN	__imp__memchr:PROC
; Function compile flags: /Ogtp
;	COMDAT ?find@?$char_traits@D@std@@SAPBDPBDIABD@Z
_TEXT	SEGMENT
__First$ = 8						; size = 4
__Count$ = 12						; size = 4
__Ch$ = 16						; size = 4
?find@?$char_traits@D@std@@SAPBDPBDIABD@Z PROC		; std::char_traits<char>::find, COMDAT
; Line 510
	push	ebp
	mov	ebp, esp
; Line 511
	mov	ecx, DWORD PTR __Ch$[ebp]
	mov	eax, DWORD PTR __Count$[ebp]
	movsx	edx, BYTE PTR [ecx]
	push	eax
	mov	eax, DWORD PTR __First$[ebp]
	push	edx
	push	eax
	call	DWORD PTR __imp__memchr
	add	esp, 12					; 0000000cH
; Line 512
	pop	ebp
	ret	0
?find@?$char_traits@D@std@@SAPBDPBDIABD@Z ENDP		; std::char_traits<char>::find
_TEXT	ENDS
PUBLIC	?move@?$char_traits@D@std@@SAPADPADPBDI@Z	; std::char_traits<char>::move
EXTRN	__imp__memmove:PROC
; Function compile flags: /Ogtp
;	COMDAT ?move@?$char_traits@D@std@@SAPADPADPBDI@Z
_TEXT	SEGMENT
__First1$ = 8						; size = 4
__First2$ = 12						; size = 4
__Count$ = 16						; size = 4
?move@?$char_traits@D@std@@SAPADPADPBDI@Z PROC		; std::char_traits<char>::move, COMDAT
; Line 516
	push	ebp
	mov	ebp, esp
; Line 518
	pop	ebp
; Line 517
	jmp	DWORD PTR __imp__memmove
?move@?$char_traits@D@std@@SAPADPADPBDI@Z ENDP		; std::char_traits<char>::move
_TEXT	ENDS
PUBLIC	?assign@?$char_traits@D@std@@SAPADPADID@Z	; std::char_traits<char>::assign
EXTRN	_memset:PROC
; Function compile flags: /Ogtp
;	COMDAT ?assign@?$char_traits@D@std@@SAPADPADID@Z
_TEXT	SEGMENT
__First$ = 8						; size = 4
__Count$ = 12						; size = 4
__Ch$ = 16						; size = 1
?assign@?$char_traits@D@std@@SAPADPADID@Z PROC		; std::char_traits<char>::assign, COMDAT
; Line 521
	push	ebp
	mov	ebp, esp
; Line 522
	mov	eax, DWORD PTR __Count$[ebp]
	movsx	ecx, BYTE PTR __Ch$[ebp]
	mov	edx, DWORD PTR __First$[ebp]
	push	eax
	push	ecx
	push	edx
	call	_memset
	add	esp, 12					; 0000000cH
; Line 523
	pop	ebp
	ret	0
?assign@?$char_traits@D@std@@SAPADPADID@Z ENDP		; std::char_traits<char>::assign
_TEXT	ENDS
PUBLIC	?assign@?$char_traits@D@std@@SAXAADABD@Z	; std::char_traits<char>::assign
; Function compile flags: /Ogtp
;	COMDAT ?assign@?$char_traits@D@std@@SAXAADABD@Z
_TEXT	SEGMENT
__Left$ = 8						; size = 4
__Right$ = 12						; size = 4
?assign@?$char_traits@D@std@@SAXAADABD@Z PROC		; std::char_traits<char>::assign, COMDAT
; Line 526
	push	ebp
	mov	ebp, esp
; Line 527
	mov	eax, DWORD PTR __Right$[ebp]
	mov	cl, BYTE PTR [eax]
	mov	edx, DWORD PTR __Left$[ebp]
	mov	BYTE PTR [edx], cl
; Line 528
	pop	ebp
	ret	0
?assign@?$char_traits@D@std@@SAXAADABD@Z ENDP		; std::char_traits<char>::assign
_TEXT	ENDS
PUBLIC	?eq@?$char_traits@D@std@@SA_NABD0@Z		; std::char_traits<char>::eq
; Function compile flags: /Ogtp
;	COMDAT ?eq@?$char_traits@D@std@@SA_NABD0@Z
_TEXT	SEGMENT
__Left$ = 8						; size = 4
__Right$ = 12						; size = 4
?eq@?$char_traits@D@std@@SA_NABD0@Z PROC		; std::char_traits<char>::eq, COMDAT
; Line 531
	push	ebp
	mov	ebp, esp
; Line 532
	mov	eax, DWORD PTR __Left$[ebp]
	mov	cl, BYTE PTR [eax]
	mov	edx, DWORD PTR __Right$[ebp]
	xor	eax, eax
	cmp	cl, BYTE PTR [edx]
	sete	al
; Line 533
	pop	ebp
	ret	0
?eq@?$char_traits@D@std@@SA_NABD0@Z ENDP		; std::char_traits<char>::eq
_TEXT	ENDS
PUBLIC	?_Adopt@_Iterator_base0@std@@QAEXPBX@Z		; std::_Iterator_base0::_Adopt
; Function compile flags: /Ogtp
;	COMDAT ?_Adopt@_Iterator_base0@std@@QAEXPBX@Z
_TEXT	SEGMENT
___formal$ = 8						; size = 4
?_Adopt@_Iterator_base0@std@@QAEXPBX@Z PROC		; std::_Iterator_base0::_Adopt, COMDAT
; _this$ = ecx
; File c:\program files (x86)\microsoft visual studio 10.0\vc\include\xutility
; Line 49
	ret	4
?_Adopt@_Iterator_base0@std@@QAEXPBX@Z ENDP		; std::_Iterator_base0::_Adopt
_TEXT	ENDS
PUBLIC	__real@00000000
PUBLIC	??0FPoint3@@QAE@XZ				; FPoint3::FPoint3
;	COMDAT __real@00000000
; File c:\openframeworks\addons\ofxvterrain\libs\src\vtdata\mathtypes.h
CONST	SEGMENT
__real@00000000 DD 000000000r			; 0
; Function compile flags: /Ogtp
CONST	ENDS
;	COMDAT ??0FPoint3@@QAE@XZ
_TEXT	SEGMENT
??0FPoint3@@QAE@XZ PROC					; FPoint3::FPoint3, COMDAT
; _this$ = ecx
; Line 95
	fldz
	mov	eax, ecx
	fst	DWORD PTR [eax+8]
	fst	DWORD PTR [eax+4]
	fstp	DWORD PTR [eax]
	ret	0
??0FPoint3@@QAE@XZ ENDP					; FPoint3::FPoint3
_TEXT	ENDS
PUBLIC	??0FPoint3@@QAE@MMM@Z				; FPoint3::FPoint3
; Function compile flags: /Ogtp
;	COMDAT ??0FPoint3@@QAE@MMM@Z
_TEXT	SEGMENT
_fx$ = 8						; size = 4
_fy$ = 12						; size = 4
_fz$ = 16						; size = 4
??0FPoint3@@QAE@MMM@Z PROC				; FPoint3::FPoint3, COMDAT
; _this$ = ecx
; Line 96
	push	ebp
	mov	ebp, esp
	fld	DWORD PTR _fx$[ebp]
	mov	eax, ecx
	fstp	DWORD PTR [eax]
	fld	DWORD PTR _fy$[ebp]
	fstp	DWORD PTR [eax+4]
	fld	DWORD PTR _fz$[ebp]
	fstp	DWORD PTR [eax+8]
	pop	ebp
	ret	12					; 0000000cH
??0FPoint3@@QAE@MMM@Z ENDP				; FPoint3::FPoint3
_TEXT	ENDS
PUBLIC	?Length@FPoint3@@QBEMXZ				; FPoint3::Length
; Function compile flags: /Ogtp
;	COMDAT ?Length@FPoint3@@QBEMXZ
_TEXT	SEGMENT
tv169 = -4						; size = 4
tv160 = -4						; size = 4
?Length@FPoint3@@QBEMXZ PROC				; FPoint3::Length, COMDAT
; _this$ = ecx
; Line 99
	push	ebp
	mov	ebp, esp
	push	ecx
	fld	DWORD PTR [ecx+4]
	fld	DWORD PTR [ecx]
	fld	DWORD PTR [ecx+8]
	fld	ST(1)
	fmulp	ST(2), ST(0)
	fld	ST(2)
	fmulp	ST(3), ST(0)
	fxch	ST(1)
	faddp	ST(2), ST(0)
	fmul	ST(0), ST(0)
	faddp	ST(1), ST(0)
	fstp	DWORD PTR tv169[ebp]
	fld	DWORD PTR tv169[ebp]
	call	__CIsqrt
	fstp	DWORD PTR tv160[ebp]
	fld	DWORD PTR tv160[ebp]
	mov	esp, ebp
	pop	ebp
	ret	0
?Length@FPoint3@@QBEMXZ ENDP				; FPoint3::Length
_TEXT	ENDS
PUBLIC	??YFPoint3@@QAEXABV0@@Z				; FPoint3::operator+=
; Function compile flags: /Ogtp
;	COMDAT ??YFPoint3@@QAEXABV0@@Z
_TEXT	SEGMENT
_v$ = 8							; size = 4
??YFPoint3@@QAEXABV0@@Z PROC				; FPoint3::operator+=, COMDAT
; _this$ = ecx
; Line 144
	push	ebp
	mov	ebp, esp
	mov	eax, DWORD PTR _v$[ebp]
	fld	DWORD PTR [eax]
	fadd	DWORD PTR [ecx]
	fstp	DWORD PTR [ecx]
	fld	DWORD PTR [eax+4]
	fadd	DWORD PTR [ecx+4]
	fstp	DWORD PTR [ecx+4]
	fld	DWORD PTR [eax+8]
	fadd	DWORD PTR [ecx+8]
	fstp	DWORD PTR [ecx+8]
	pop	ebp
	ret	4
??YFPoint3@@QAEXABV0@@Z ENDP				; FPoint3::operator+=
_TEXT	ENDS
PUBLIC	__real@0000000000000000
PUBLIC	??0DPoint2@@QAE@XZ				; DPoint2::DPoint2
;	COMDAT __real@0000000000000000
CONST	SEGMENT
__real@0000000000000000 DQ 00000000000000000r	; 0
; Function compile flags: /Ogtp
CONST	ENDS
;	COMDAT ??0DPoint2@@QAE@XZ
_TEXT	SEGMENT
??0DPoint2@@QAE@XZ PROC					; DPoint2::DPoint2, COMDAT
; _this$ = ecx
; Line 285
	fldz
	mov	eax, ecx
	fst	QWORD PTR [eax+8]
	fstp	QWORD PTR [eax]
	ret	0
??0DPoint2@@QAE@XZ ENDP					; DPoint2::DPoint2
_TEXT	ENDS
PUBLIC	??0DPoint2@@QAE@NN@Z				; DPoint2::DPoint2
; Function compile flags: /Ogtp
;	COMDAT ??0DPoint2@@QAE@NN@Z
_TEXT	SEGMENT
_fx$ = 8						; size = 8
_fy$ = 16						; size = 8
??0DPoint2@@QAE@NN@Z PROC				; DPoint2::DPoint2, COMDAT
; _this$ = ecx
; Line 288
	push	ebp
	mov	ebp, esp
	fld	QWORD PTR _fx$[ebp]
	mov	eax, ecx
	fstp	QWORD PTR [eax]
	fld	QWORD PTR _fy$[ebp]
	fstp	QWORD PTR [eax+8]
	pop	ebp
	ret	16					; 00000010H
??0DPoint2@@QAE@NN@Z ENDP				; DPoint2::DPoint2
_TEXT	ENDS
PUBLIC	?Length@DPoint2@@QBENXZ				; DPoint2::Length
; Function compile flags: /Ogtp
;	COMDAT ?Length@DPoint2@@QBENXZ
_TEXT	SEGMENT
?Length@DPoint2@@QBENXZ PROC				; DPoint2::Length, COMDAT
; _this$ = ecx
; Line 291
	fld	QWORD PTR [ecx+8]
	fld	QWORD PTR [ecx]
	fmul	ST(0), ST(0)
	fld	ST(1)
	fmulp	ST(2), ST(0)
	faddp	ST(1), ST(0)
	jmp	__CIsqrt
?Length@DPoint2@@QBENXZ ENDP				; DPoint2::Length
_TEXT	ENDS
PUBLIC	??GDPoint2@@QBE?AV0@ABV0@@Z			; DPoint2::operator-
; Function compile flags: /Ogtp
;	COMDAT ??GDPoint2@@QBE?AV0@ABV0@@Z
_TEXT	SEGMENT
___$ReturnUdt$ = 8					; size = 4
_v$ = 12						; size = 4
??GDPoint2@@QBE?AV0@ABV0@@Z PROC			; DPoint2::operator-, COMDAT
; _this$ = ecx
; Line 322
	push	ebp
	mov	ebp, esp
	mov	edx, DWORD PTR _v$[ebp]
	fld	QWORD PTR [ecx]
	fsub	QWORD PTR [edx]
	mov	eax, DWORD PTR ___$ReturnUdt$[ebp]
	fstp	QWORD PTR [eax]
	fld	QWORD PTR [ecx+8]
	fsub	QWORD PTR [edx+8]
	fstp	QWORD PTR [eax+8]
	pop	ebp
	ret	8
??GDPoint2@@QBE?AV0@ABV0@@Z ENDP			; DPoint2::operator-
_TEXT	ENDS
PUBLIC	??YDPoint2@@QAEXABV0@@Z				; DPoint2::operator+=
; Function compile flags: /Ogtp
;	COMDAT ??YDPoint2@@QAEXABV0@@Z
_TEXT	SEGMENT
_v$ = 8							; size = 4
??YDPoint2@@QAEXABV0@@Z PROC				; DPoint2::operator+=, COMDAT
; _this$ = ecx
; Line 326
	push	ebp
	mov	ebp, esp
	mov	eax, DWORD PTR _v$[ebp]
	fld	QWORD PTR [eax]
	fadd	QWORD PTR [ecx]
	fstp	QWORD PTR [ecx]
	fld	QWORD PTR [eax+8]
	fadd	QWORD PTR [ecx+8]
	fstp	QWORD PTR [ecx+8]
	pop	ebp
	ret	4
??YDPoint2@@QAEXABV0@@Z ENDP				; DPoint2::operator+=
_TEXT	ENDS
PUBLIC	??0FSphere@@QAE@XZ				; FSphere::FSphere
; Function compile flags: /Ogtp
;	COMDAT ??0FSphere@@QAE@XZ
_TEXT	SEGMENT
??0FSphere@@QAE@XZ PROC					; FSphere::FSphere, COMDAT
; _this$ = ecx
; Line 700
	fldz
	mov	eax, ecx
	fst	DWORD PTR [eax+8]
	fst	DWORD PTR [eax+4]
	fstp	DWORD PTR [eax]
	ret	0
??0FSphere@@QAE@XZ ENDP					; FSphere::FSphere
_TEXT	ENDS
PUBLIC	??0RGBf@@QAE@XZ					; RGBf::RGBf
; Function compile flags: /Ogtp
;	COMDAT ??0RGBf@@QAE@XZ
_TEXT	SEGMENT
??0RGBf@@QAE@XZ PROC					; RGBf::RGBf, COMDAT
; _this$ = ecx
; Line 1329
	mov	eax, ecx
	ret	0
??0RGBf@@QAE@XZ ENDP					; RGBf::RGBf
_TEXT	ENDS
PUBLIC	??0RGBf@@QAE@MMM@Z				; RGBf::RGBf
; Function compile flags: /Ogtp
;	COMDAT ??0RGBf@@QAE@MMM@Z
_TEXT	SEGMENT
__r$ = 8						; size = 4
__g$ = 12						; size = 4
__b$ = 16						; size = 4
??0RGBf@@QAE@MMM@Z PROC					; RGBf::RGBf, COMDAT
; _this$ = ecx
; Line 1330
	push	ebp
	mov	ebp, esp
	fld	DWORD PTR __r$[ebp]
	mov	eax, ecx
	fstp	DWORD PTR [eax]
	fld	DWORD PTR __g$[ebp]
	fstp	DWORD PTR [eax+4]
	fld	DWORD PTR __b$[ebp]
	fstp	DWORD PTR [eax+8]
	pop	ebp
	ret	12					; 0000000cH
??0RGBf@@QAE@MMM@Z ENDP					; RGBf::RGBf
_TEXT	ENDS
PUBLIC	?Set@RGBf@@QAEXMMM@Z				; RGBf::Set
; Function compile flags: /Ogtp
;	COMDAT ?Set@RGBf@@QAEXMMM@Z
_TEXT	SEGMENT
__r$ = 8						; size = 4
__g$ = 12						; size = 4
__b$ = 16						; size = 4
?Set@RGBf@@QAEXMMM@Z PROC				; RGBf::Set, COMDAT
; _this$ = ecx
; Line 1334
	push	ebp
	mov	ebp, esp
	fld	DWORD PTR __r$[ebp]
	fstp	DWORD PTR [ecx]
	fld	DWORD PTR __g$[ebp]
	fstp	DWORD PTR [ecx+4]
	fld	DWORD PTR __b$[ebp]
	fstp	DWORD PTR [ecx+8]
	pop	ebp
	ret	12					; 0000000cH
?Set@RGBf@@QAEXMMM@Z ENDP				; RGBf::Set
_TEXT	ENDS
PUBLIC	??DRGBf@@QBE?AV0@M@Z				; RGBf::operator*
; Function compile flags: /Ogtp
;	COMDAT ??DRGBf@@QBE?AV0@M@Z
_TEXT	SEGMENT
___$ReturnUdt$ = 8					; size = 4
_s$ = 12						; size = 4
??DRGBf@@QBE?AV0@M@Z PROC				; RGBf::operator*, COMDAT
; _this$ = ecx
; Line 1337
	push	ebp
	mov	ebp, esp
	fld	DWORD PTR [ecx]
	mov	eax, DWORD PTR ___$ReturnUdt$[ebp]
	fld	DWORD PTR _s$[ebp]
	fld	ST(0)
	fmulp	ST(2), ST(0)
	fxch	ST(1)
	fstp	DWORD PTR [eax]
	fld	DWORD PTR [ecx+4]
	fmul	ST(0), ST(1)
	fstp	DWORD PTR [eax+4]
	fmul	DWORD PTR [ecx+8]
	fstp	DWORD PTR [eax+8]
	pop	ebp
	ret	8
??DRGBf@@QBE?AV0@M@Z ENDP				; RGBf::operator*
_TEXT	ENDS
PUBLIC	??8RGBf@@QBE_NABV0@@Z				; RGBf::operator==
; Function compile flags: /Ogtp
;	COMDAT ??8RGBf@@QBE_NABV0@@Z
_TEXT	SEGMENT
_v2$ = 8						; size = 4
??8RGBf@@QBE_NABV0@@Z PROC				; RGBf::operator==, COMDAT
; _this$ = ecx
; Line 1349
	push	ebp
	mov	ebp, esp
	fld	DWORD PTR [ecx]
	mov	edx, DWORD PTR _v2$[ebp]
	fld	DWORD PTR [edx]
	fucompp
	fnstsw	ax
	test	ah, 68					; 00000044H
	jp	SHORT $LN3@operator
	fld	DWORD PTR [ecx+4]
	fld	DWORD PTR [edx+4]
	fucompp
	fnstsw	ax
	test	ah, 68					; 00000044H
	jp	SHORT $LN3@operator
	fld	DWORD PTR [ecx+8]
	fld	DWORD PTR [edx+8]
	fucompp
	fnstsw	ax
	test	ah, 68					; 00000044H
	jp	SHORT $LN3@operator
	mov	eax, 1
	pop	ebp
	ret	4
$LN3@operator:
	xor	eax, eax
	pop	ebp
	ret	4
??8RGBf@@QBE_NABV0@@Z ENDP				; RGBf::operator==
_TEXT	ENDS
PUBLIC	__real@406ffff7c0000000
PUBLIC	??4RGBi@@QAEAAV0@ABVRGBf@@@Z			; RGBi::operator=
EXTRN	__ftol2_sse:PROC
;	COMDAT __real@406ffff7c0000000
CONST	SEGMENT
__real@406ffff7c0000000 DQ 0406ffff7c0000000r	; 255.999
; Function compile flags: /Ogtp
CONST	ENDS
;	COMDAT ??4RGBi@@QAEAAV0@ABVRGBf@@@Z
_TEXT	SEGMENT
_v$ = 8							; size = 4
??4RGBi@@QAEAAV0@ABVRGBf@@@Z PROC			; RGBi::operator=, COMDAT
; _this$ = ecx
; Line 1357
	push	ebp
	mov	ebp, esp
	push	esi
	push	edi
; Line 1358
	mov	edi, DWORD PTR _v$[ebp]
	fld	DWORD PTR [edi]
	mov	esi, ecx
	fld	QWORD PTR __real@406ffff7c0000000
	fmul	ST(1), ST(0)
	fxch	ST(1)
	call	__ftol2_sse
	mov	WORD PTR [esi], ax
; Line 1359
	fld	DWORD PTR [edi+4]
	fmul	ST(0), ST(1)
	call	__ftol2_sse
	mov	WORD PTR [esi+2], ax
; Line 1360
	fmul	DWORD PTR [edi+8]
	call	__ftol2_sse
	mov	WORD PTR [esi+4], ax
	pop	edi
; Line 1361
	mov	eax, esi
	pop	esi
; Line 1362
	pop	ebp
	ret	4
??4RGBi@@QAEAAV0@ABVRGBf@@@Z ENDP			; RGBi::operator=
_TEXT	ENDS
PUBLIC	__real@406fe00000000000
PUBLIC	??4RGBf@@QAEAAV0@ABVRGBi@@@Z			; RGBf::operator=
;	COMDAT __real@406fe00000000000
CONST	SEGMENT
__real@406fe00000000000 DQ 0406fe00000000000r	; 255
; Function compile flags: /Ogtp
CONST	ENDS
;	COMDAT ??4RGBf@@QAEAAV0@ABVRGBi@@@Z
_TEXT	SEGMENT
tv157 = 8						; size = 4
tv149 = 8						; size = 4
tv147 = 8						; size = 4
_v$ = 8							; size = 4
??4RGBf@@QAEAAV0@ABVRGBi@@@Z PROC			; RGBf::operator=, COMDAT
; _this$ = ecx
; Line 1365
	push	ebp
	mov	ebp, esp
	mov	eax, ecx
; Line 1366
	mov	ecx, DWORD PTR _v$[ebp]
	movsx	edx, WORD PTR [ecx]
	mov	DWORD PTR tv157[ebp], edx
	fild	DWORD PTR tv157[ebp]
	fld	QWORD PTR __real@406fe00000000000
	fdiv	ST(1), ST(0)
	fxch	ST(1)
	fstp	DWORD PTR [eax]
; Line 1367
	movsx	edx, WORD PTR [ecx+2]
	mov	DWORD PTR tv149[ebp], edx
	fild	DWORD PTR tv149[ebp]
	fdiv	ST(0), ST(1)
	fstp	DWORD PTR [eax+4]
; Line 1368
	movsx	ecx, WORD PTR [ecx+4]
	mov	DWORD PTR tv147[ebp], ecx
	fild	DWORD PTR tv147[ebp]
	fdivrp	ST(1), ST(0)
	fstp	DWORD PTR [eax+8]
; Line 1370
	pop	ebp
	ret	4
??4RGBf@@QAEAAV0@ABVRGBi@@@Z ENDP			; RGBf::operator=
_TEXT	ENDS
PUBLIC	__real@3f800000
PUBLIC	??4RGBAf@@QAEAAV0@ABVRGBf@@@Z			; RGBAf::operator=
;	COMDAT __real@3f800000
CONST	SEGMENT
__real@3f800000 DD 03f800000r			; 1
; Function compile flags: /Ogtp
CONST	ENDS
;	COMDAT ??4RGBAf@@QAEAAV0@ABVRGBf@@@Z
_TEXT	SEGMENT
_v$ = 8							; size = 4
??4RGBAf@@QAEAAV0@ABVRGBf@@@Z PROC			; RGBAf::operator=, COMDAT
; _this$ = ecx
; Line 1394
	push	ebp
	mov	ebp, esp
	mov	eax, ecx
	mov	ecx, DWORD PTR _v$[ebp]
	fld	DWORD PTR [ecx]
	fstp	DWORD PTR [eax]
	fld	DWORD PTR [ecx+4]
	fstp	DWORD PTR [eax+4]
	fld	DWORD PTR [ecx+8]
	fstp	DWORD PTR [eax+8]
	fld1
	fstp	DWORD PTR [eax+12]
	pop	ebp
	ret	4
??4RGBAf@@QAEAAV0@ABVRGBf@@@Z ENDP			; RGBAf::operator=
_TEXT	ENDS
PUBLIC	??0Vec3f@osg@@QAE@MMM@Z				; osg::Vec3f::Vec3f
; Function compile flags: /Ogtp
;	COMDAT ??0Vec3f@osg@@QAE@MMM@Z
_TEXT	SEGMENT
_x$ = 8							; size = 4
_y$ = 12						; size = 4
_z$ = 16						; size = 4
??0Vec3f@osg@@QAE@MMM@Z PROC				; osg::Vec3f::Vec3f, COMDAT
; _this$ = ecx
; File c:\openscenegraph-3.0.1-vs10.0-x86\include\osg\vec3f
; Line 42
	push	ebp
	mov	ebp, esp
	fld	DWORD PTR _x$[ebp]
	mov	eax, ecx
	fstp	DWORD PTR [eax]
	fld	DWORD PTR _y$[ebp]
	fstp	DWORD PTR [eax+4]
	fld	DWORD PTR _z$[ebp]
	fstp	DWORD PTR [eax+8]
	pop	ebp
	ret	12					; 0000000cH
??0Vec3f@osg@@QAE@MMM@Z ENDP				; osg::Vec3f::Vec3f
_TEXT	ENDS
PUBLIC	??AVec3f@osg@@QBEMH@Z				; osg::Vec3f::operator[]
; Function compile flags: /Ogtp
;	COMDAT ??AVec3f@osg@@QBEMH@Z
_TEXT	SEGMENT
_i$ = 8							; size = 4
??AVec3f@osg@@QBEMH@Z PROC				; osg::Vec3f::operator[], COMDAT
; _this$ = ecx
; Line 78
	push	ebp
	mov	ebp, esp
	mov	eax, DWORD PTR _i$[ebp]
	fld	DWORD PTR [ecx+eax*4]
	pop	ebp
	ret	4
??AVec3f@osg@@QBEMH@Z ENDP				; osg::Vec3f::operator[]
_TEXT	ENDS
PUBLIC	?SetDiffuse1@vtMaterial@@QAEXABVRGBAf@@@Z	; vtMaterial::SetDiffuse1
EXTRN	?SetDiffuse@vtMaterial@@QAEXMMMM@Z:PROC		; vtMaterial::SetDiffuse
; Function compile flags: /Ogtp
;	COMDAT ?SetDiffuse1@vtMaterial@@QAEXABVRGBAf@@@Z
_TEXT	SEGMENT
_c$ = 8							; size = 4
?SetDiffuse1@vtMaterial@@QAEXABVRGBAf@@@Z PROC		; vtMaterial::SetDiffuse1, COMDAT
; _this$ = ecx
; File c:\openframeworks\addons\ofxvterrain\libs\src\vtlib\vtosg\material.h
; Line 71
	push	ebp
	mov	ebp, esp
	mov	eax, DWORD PTR _c$[ebp]
	fld	DWORD PTR [eax+12]
	sub	esp, 16					; 00000010H
	fstp	DWORD PTR [esp+12]
	fld	DWORD PTR [eax+8]
	fstp	DWORD PTR [esp+8]
	fld	DWORD PTR [eax+4]
	fstp	DWORD PTR [esp+4]
	fld	DWORD PTR [eax]
	fstp	DWORD PTR [esp]
	call	?SetDiffuse@vtMaterial@@QAEXMMMM@Z	; vtMaterial::SetDiffuse
	pop	ebp
	ret	4
?SetDiffuse1@vtMaterial@@QAEXABVRGBAf@@@Z ENDP		; vtMaterial::SetDiffuse1
_TEXT	ENDS
PUBLIC	?SetSpecular2@vtMaterial@@QAEXM@Z		; vtMaterial::SetSpecular2
EXTRN	?SetSpecular@vtMaterial@@QAEXMMM@Z:PROC		; vtMaterial::SetSpecular
; Function compile flags: /Ogtp
;	COMDAT ?SetSpecular2@vtMaterial@@QAEXM@Z
_TEXT	SEGMENT
_f$ = 8							; size = 4
?SetSpecular2@vtMaterial@@QAEXM@Z PROC			; vtMaterial::SetSpecular2, COMDAT
; _this$ = ecx
; Line 75
	push	ebp
	mov	ebp, esp
	fld	DWORD PTR _f$[ebp]
	sub	esp, 12					; 0000000cH
	fst	DWORD PTR [esp+8]
	fst	DWORD PTR [esp+4]
	fstp	DWORD PTR [esp]
	call	?SetSpecular@vtMaterial@@QAEXMMM@Z	; vtMaterial::SetSpecular
	pop	ebp
	ret	4
?SetSpecular2@vtMaterial@@QAEXM@Z ENDP			; vtMaterial::SetSpecular2
_TEXT	ENDS
PUBLIC	?SetAmbient1@vtMaterial@@QAEXABVRGBf@@@Z	; vtMaterial::SetAmbient1
EXTRN	?SetAmbient@vtMaterial@@QAEXMMM@Z:PROC		; vtMaterial::SetAmbient
; Function compile flags: /Ogtp
;	COMDAT ?SetAmbient1@vtMaterial@@QAEXABVRGBf@@@Z
_TEXT	SEGMENT
_c$ = 8							; size = 4
?SetAmbient1@vtMaterial@@QAEXABVRGBf@@@Z PROC		; vtMaterial::SetAmbient1, COMDAT
; _this$ = ecx
; Line 77
	push	ebp
	mov	ebp, esp
	mov	eax, DWORD PTR _c$[ebp]
	fld	DWORD PTR [eax+8]
	sub	esp, 12					; 0000000cH
	fstp	DWORD PTR [esp+8]
	fld	DWORD PTR [eax+4]
	fstp	DWORD PTR [esp+4]
	fld	DWORD PTR [eax]
	fstp	DWORD PTR [esp]
	call	?SetAmbient@vtMaterial@@QAEXMMM@Z	; vtMaterial::SetAmbient
	pop	ebp
	ret	4
?SetAmbient1@vtMaterial@@QAEXABVRGBf@@@Z ENDP		; vtMaterial::SetAmbient1
_TEXT	ENDS
PUBLIC	??0OGREnvelope@@QAE@XZ				; OGREnvelope::OGREnvelope
; Function compile flags: /Ogtp
;	COMDAT ??0OGREnvelope@@QAE@XZ
_TEXT	SEGMENT
??0OGREnvelope@@QAE@XZ PROC				; OGREnvelope::OGREnvelope, COMDAT
; _this$ = ecx
; File c:\osgeo4w\include\ogr_core.h
; Line 51
	fldz
	mov	eax, ecx
	fst	QWORD PTR [eax]
	fst	QWORD PTR [eax+8]
	fst	QWORD PTR [eax+16]
	fstp	QWORD PTR [eax+24]
; Line 52
	ret	0
??0OGREnvelope@@QAE@XZ ENDP				; OGREnvelope::OGREnvelope
_TEXT	ENDS
PUBLIC	?IsInit@OGREnvelope@@QBEHXZ			; OGREnvelope::IsInit
; Function compile flags: /Ogtp
;	COMDAT ?IsInit@OGREnvelope@@QBEHXZ
_TEXT	SEGMENT
?IsInit@OGREnvelope@@QBEHXZ PROC			; OGREnvelope::IsInit, COMDAT
; _this$ = ecx
; Line 58
	fld	QWORD PTR [ecx]
	fldz
	fld	ST(0)
	fucomp	ST(2)
	fnstsw	ax
	fstp	ST(1)
	test	ah, 68					; 00000044H
	jp	SHORT $LN12@IsInit
	fld	QWORD PTR [ecx+16]
	fld	ST(1)
	fucompp
	fnstsw	ax
	test	ah, 68					; 00000044H
	jp	SHORT $LN12@IsInit
	fld	QWORD PTR [ecx+8]
	fld	ST(1)
	fucompp
	fnstsw	ax
	test	ah, 68					; 00000044H
	jp	SHORT $LN12@IsInit
	fld	QWORD PTR [ecx+24]
	fucompp
	fnstsw	ax
	test	ah, 68					; 00000044H
	jp	SHORT $LN3@IsInit
	xor	eax, eax
	ret	0
$LN12@IsInit:
	fstp	ST(0)
$LN3@IsInit:
	mov	eax, 1
	ret	0
?IsInit@OGREnvelope@@QBEHXZ ENDP			; OGREnvelope::IsInit
_TEXT	ENDS
PUBLIC	?Merge@OGREnvelope@@QAEXABV1@@Z			; OGREnvelope::Merge
; Function compile flags: /Ogtp
;	COMDAT ?Merge@OGREnvelope@@QAEXABV1@@Z
_TEXT	SEGMENT
_sOther$ = 8						; size = 4
?Merge@OGREnvelope@@QAEXABV1@@Z PROC			; OGREnvelope::Merge, COMDAT
; _this$ = ecx
; Line 59
	push	ebp
	mov	ebp, esp
; Line 60
	fld	QWORD PTR [ecx]
	fldz
	fld	ST(0)
	fucomp	ST(2)
	fnstsw	ax
	fstp	ST(1)
	test	ah, 68					; 00000044H
	jp	SHORT $LN25@Merge
	fld	QWORD PTR [ecx+16]
	fld	ST(1)
	fucompp
	fnstsw	ax
	test	ah, 68					; 00000044H
	jp	SHORT $LN25@Merge
	fld	QWORD PTR [ecx+8]
	fld	ST(1)
	fucompp
	fnstsw	ax
	test	ah, 68					; 00000044H
	jp	SHORT $LN25@Merge
	fld	QWORD PTR [ecx+24]
	fucompp
	fnstsw	ax
	test	ah, 68					; 00000044H
	jp	SHORT $LN15@Merge
; Line 69
	mov	eax, DWORD PTR _sOther$[ebp]
	fld	QWORD PTR [eax]
	fstp	QWORD PTR [ecx]
; Line 70
	fld	QWORD PTR [eax+8]
	fstp	QWORD PTR [ecx+8]
; Line 71
	fld	QWORD PTR [eax+16]
	fstp	QWORD PTR [ecx+16]
; Line 72
	fld	QWORD PTR [eax+24]
	fstp	QWORD PTR [ecx+24]
; Line 74
	pop	ebp
	ret	4
$LN25@Merge:
; Line 60
	fstp	ST(0)
$LN15@Merge:
; Line 62
	mov	edx, DWORD PTR _sOther$[ebp]
	fld	QWORD PTR [edx]
	fcomp	QWORD PTR [ecx]
	fnstsw	ax
	test	ah, 65					; 00000041H
	jne	SHORT $LN5@Merge
	fld	QWORD PTR [ecx]
	jmp	SHORT $LN6@Merge
$LN5@Merge:
	fld	QWORD PTR [edx]
$LN6@Merge:
	fstp	QWORD PTR [ecx]
; Line 63
	fld	QWORD PTR [edx+8]
	fcomp	QWORD PTR [ecx+8]
	fnstsw	ax
	test	ah, 5
	jp	SHORT $LN7@Merge
	fld	QWORD PTR [ecx+8]
	jmp	SHORT $LN8@Merge
$LN7@Merge:
	fld	QWORD PTR [edx+8]
$LN8@Merge:
	fstp	QWORD PTR [ecx+8]
; Line 64
	fld	QWORD PTR [edx+16]
	fcomp	QWORD PTR [ecx+16]
	fnstsw	ax
	test	ah, 65					; 00000041H
	jne	SHORT $LN9@Merge
	fld	QWORD PTR [ecx+16]
	jmp	SHORT $LN10@Merge
$LN9@Merge:
	fld	QWORD PTR [edx+16]
$LN10@Merge:
	fstp	QWORD PTR [ecx+16]
; Line 65
	fld	QWORD PTR [edx+24]
	fcomp	QWORD PTR [ecx+24]
	fnstsw	ax
	test	ah, 5
	jp	SHORT $LN11@Merge
	fld	QWORD PTR [ecx+24]
; Line 72
	fstp	QWORD PTR [ecx+24]
; Line 74
	pop	ebp
	ret	4
$LN11@Merge:
; Line 65
	fld	QWORD PTR [edx+24]
; Line 72
	fstp	QWORD PTR [ecx+24]
; Line 74
	pop	ebp
	ret	4
?Merge@OGREnvelope@@QAEXABV1@@Z ENDP			; OGREnvelope::Merge
_TEXT	ENDS
PUBLIC	?Merge@OGREnvelope@@QAEXNN@Z			; OGREnvelope::Merge
; Function compile flags: /Ogtp
;	COMDAT ?Merge@OGREnvelope@@QAEXNN@Z
_TEXT	SEGMENT
_dfX$ = 8						; size = 8
_dfY$ = 16						; size = 8
?Merge@OGREnvelope@@QAEXNN@Z PROC			; OGREnvelope::Merge, COMDAT
; _this$ = ecx
; Line 75
	push	ebp
	mov	ebp, esp
; Line 76
	fld	QWORD PTR [ecx]
	fldz
	fld	ST(0)
	fucomp	ST(2)
	fnstsw	ax
	fstp	ST(1)
	test	ah, 68					; 00000044H
	jp	SHORT $LN25@Merge@2
	fld	QWORD PTR [ecx+16]
	fld	ST(1)
	fucompp
	fnstsw	ax
	test	ah, 68					; 00000044H
	jp	SHORT $LN25@Merge@2
	fld	QWORD PTR [ecx+8]
	fld	ST(1)
	fucompp
	fnstsw	ax
	test	ah, 68					; 00000044H
	jp	SHORT $LN25@Merge@2
	fld	QWORD PTR [ecx+24]
	fucompp
	fnstsw	ax
	test	ah, 68					; 00000044H
	jp	SHORT $LN15@Merge@2
; Line 85
	fld	QWORD PTR _dfX$[ebp]
	fst	QWORD PTR [ecx+8]
	fstp	QWORD PTR [ecx]
; Line 86
	fld	QWORD PTR _dfY$[ebp]
	fst	QWORD PTR [ecx+24]
	fstp	QWORD PTR [ecx+16]
; Line 88
	pop	ebp
	ret	16					; 00000010H
$LN25@Merge@2:
; Line 76
	fstp	ST(0)
$LN15@Merge@2:
; Line 78
	fld	QWORD PTR _dfX$[ebp]
	fcom	QWORD PTR [ecx]
	fnstsw	ax
	test	ah, 65					; 00000041H
	jne	SHORT $LN5@Merge@2
	fld	QWORD PTR [ecx]
	jmp	SHORT $LN6@Merge@2
$LN5@Merge@2:
	fld	ST(0)
$LN6@Merge@2:
	fstp	QWORD PTR [ecx]
; Line 79
	fcom	QWORD PTR [ecx+8]
	fnstsw	ax
	test	ah, 5
	jp	SHORT $LN8@Merge@2
	fstp	ST(0)
	fld	QWORD PTR [ecx+8]
$LN8@Merge@2:
	fstp	QWORD PTR [ecx+8]
; Line 80
	fld	QWORD PTR _dfY$[ebp]
	fcom	QWORD PTR [ecx+16]
	fnstsw	ax
	test	ah, 65					; 00000041H
	jne	SHORT $LN9@Merge@2
	fld	QWORD PTR [ecx+16]
	jmp	SHORT $LN10@Merge@2
$LN9@Merge@2:
	fld	ST(0)
$LN10@Merge@2:
	fstp	QWORD PTR [ecx+16]
; Line 81
	fcom	QWORD PTR [ecx+24]
	fnstsw	ax
	test	ah, 5
	jp	SHORT $LN12@Merge@2
	fstp	ST(0)
	fld	QWORD PTR [ecx+24]
$LN12@Merge@2:
	fstp	QWORD PTR [ecx+24]
; Line 88
	pop	ebp
	ret	16					; 00000010H
?Merge@OGREnvelope@@QAEXNN@Z ENDP			; OGREnvelope::Merge
_TEXT	ENDS
PUBLIC	?Intersects@OGREnvelope@@QBEHABV1@@Z		; OGREnvelope::Intersects
; Function compile flags: /Ogtp
;	COMDAT ?Intersects@OGREnvelope@@QBEHABV1@@Z
_TEXT	SEGMENT
_other$ = 8						; size = 4
?Intersects@OGREnvelope@@QBEHABV1@@Z PROC		; OGREnvelope::Intersects, COMDAT
; _this$ = ecx
; Line 118
	push	ebp
	mov	ebp, esp
; Line 120
	mov	edx, DWORD PTR _other$[ebp]
	fld	QWORD PTR [edx+8]
	fcomp	QWORD PTR [ecx]
	fnstsw	ax
	test	ah, 1
	jne	SHORT $LN3@Intersects
	fld	QWORD PTR [edx]
	fcomp	QWORD PTR [ecx+8]
	fnstsw	ax
	test	ah, 65					; 00000041H
	jp	SHORT $LN3@Intersects
	fld	QWORD PTR [edx+24]
	fcomp	QWORD PTR [ecx+16]
	fnstsw	ax
	test	ah, 1
	jne	SHORT $LN3@Intersects
	fld	QWORD PTR [edx+16]
	fcomp	QWORD PTR [ecx+24]
	fnstsw	ax
	test	ah, 65					; 00000041H
	jp	SHORT $LN3@Intersects
	mov	eax, 1
; Line 121
	pop	ebp
	ret	4
$LN3@Intersects:
; Line 120
	xor	eax, eax
; Line 121
	pop	ebp
	ret	4
?Intersects@OGREnvelope@@QBEHABV1@@Z ENDP		; OGREnvelope::Intersects
_TEXT	ENDS
PUBLIC	?Contains@OGREnvelope@@QBEHABV1@@Z		; OGREnvelope::Contains
; Function compile flags: /Ogtp
;	COMDAT ?Contains@OGREnvelope@@QBEHABV1@@Z
_TEXT	SEGMENT
_other$ = 8						; size = 4
?Contains@OGREnvelope@@QBEHABV1@@Z PROC			; OGREnvelope::Contains, COMDAT
; _this$ = ecx
; Line 124
	push	ebp
	mov	ebp, esp
; Line 126
	mov	edx, DWORD PTR _other$[ebp]
	fld	QWORD PTR [edx]
	fcomp	QWORD PTR [ecx]
	fnstsw	ax
	test	ah, 1
	jne	SHORT $LN3@Contains
	fld	QWORD PTR [edx+16]
	fcomp	QWORD PTR [ecx+16]
	fnstsw	ax
	test	ah, 1
	jne	SHORT $LN3@Contains
	fld	QWORD PTR [edx+8]
	fcomp	QWORD PTR [ecx+8]
	fnstsw	ax
	test	ah, 65					; 00000041H
	jp	SHORT $LN3@Contains
	fld	QWORD PTR [edx+24]
	fcomp	QWORD PTR [ecx+24]
	fnstsw	ax
	test	ah, 65					; 00000041H
	jp	SHORT $LN3@Contains
	mov	eax, 1
; Line 127
	pop	ebp
	ret	4
$LN3@Contains:
; Line 126
	xor	eax, eax
; Line 127
	pop	ebp
	ret	4
?Contains@OGREnvelope@@QBEHABV1@@Z ENDP			; OGREnvelope::Contains
_TEXT	ENDS
PUBLIC	??4OGREnvelope@@QAEAAV0@ABV0@@Z			; OGREnvelope::operator=
; Function compile flags: /Ogtp
;	COMDAT ??4OGREnvelope@@QAEAAV0@ABV0@@Z
_TEXT	SEGMENT
___that$ = 8						; size = 4
??4OGREnvelope@@QAEAAV0@ABV0@@Z PROC			; OGREnvelope::operator=, COMDAT
; _this$ = ecx
	push	ebp
	mov	ebp, esp
	push	esi
	mov	esi, DWORD PTR ___that$[ebp]
	push	edi
	mov	eax, ecx
	mov	ecx, 8
	mov	edi, eax
	rep movsd
	pop	edi
	pop	esi
	pop	ebp
	ret	4
??4OGREnvelope@@QAEAAV0@ABV0@@Z ENDP			; OGREnvelope::operator=
_TEXT	ENDS
PUBLIC	??0OGREnvelope3D@@QAE@XZ			; OGREnvelope3D::OGREnvelope3D
; Function compile flags: /Ogtp
;	COMDAT ??0OGREnvelope3D@@QAE@XZ
_TEXT	SEGMENT
??0OGREnvelope3D@@QAE@XZ PROC				; OGREnvelope3D::OGREnvelope3D, COMDAT
; _this$ = ecx
; Line 149
	fldz
	mov	eax, ecx
	fst	QWORD PTR [eax]
	fst	QWORD PTR [eax+8]
	fst	QWORD PTR [eax+16]
	fst	QWORD PTR [eax+24]
	fst	QWORD PTR [eax+32]
	fstp	QWORD PTR [eax+40]
; Line 150
	ret	0
??0OGREnvelope3D@@QAE@XZ ENDP				; OGREnvelope3D::OGREnvelope3D
_TEXT	ENDS
PUBLIC	?IsInit@OGREnvelope3D@@QBEHXZ			; OGREnvelope3D::IsInit
; Function compile flags: /Ogtp
;	COMDAT ?IsInit@OGREnvelope3D@@QBEHXZ
_TEXT	SEGMENT
?IsInit@OGREnvelope3D@@QBEHXZ PROC			; OGREnvelope3D::IsInit, COMDAT
; _this$ = ecx
; Line 155
	fld	QWORD PTR [ecx]
	fldz
	fld	ST(0)
	fucomp	ST(2)
	fnstsw	ax
	fstp	ST(1)
	test	ah, 68					; 00000044H
	jp	SHORT $LN18@IsInit@2
	fld	QWORD PTR [ecx+16]
	fld	ST(1)
	fucompp
	fnstsw	ax
	test	ah, 68					; 00000044H
	jp	SHORT $LN18@IsInit@2
	fld	QWORD PTR [ecx+8]
	fld	ST(1)
	fucompp
	fnstsw	ax
	test	ah, 68					; 00000044H
	jp	SHORT $LN18@IsInit@2
	fld	QWORD PTR [ecx+24]
	fld	ST(1)
	fucompp
	fnstsw	ax
	test	ah, 68					; 00000044H
	jp	SHORT $LN18@IsInit@2
	fld	QWORD PTR [ecx+32]
	fld	ST(1)
	fucompp
	fnstsw	ax
	test	ah, 68					; 00000044H
	jp	SHORT $LN18@IsInit@2
	fld	QWORD PTR [ecx+40]
	fucompp
	fnstsw	ax
	test	ah, 68					; 00000044H
	jp	SHORT $LN3@IsInit@2
	xor	eax, eax
	ret	0
$LN18@IsInit@2:
	fstp	ST(0)
$LN3@IsInit@2:
	mov	eax, 1
	ret	0
?IsInit@OGREnvelope3D@@QBEHXZ ENDP			; OGREnvelope3D::IsInit
_TEXT	ENDS
PUBLIC	?Merge@OGREnvelope3D@@QAEXABV1@@Z		; OGREnvelope3D::Merge
; Function compile flags: /Ogtp
;	COMDAT ?Merge@OGREnvelope3D@@QAEXABV1@@Z
_TEXT	SEGMENT
_sOther$ = 8						; size = 4
?Merge@OGREnvelope3D@@QAEXABV1@@Z PROC			; OGREnvelope3D::Merge, COMDAT
; _this$ = ecx
; Line 156
	push	ebp
	mov	ebp, esp
	push	esi
	mov	esi, ecx
; Line 157
	call	?IsInit@OGREnvelope3D@@QBEHXZ		; OGREnvelope3D::IsInit
	test	eax, eax
	je	$LN2@Merge@3
; Line 159
	mov	ecx, DWORD PTR _sOther$[ebp]
	fld	QWORD PTR [ecx]
	fcomp	QWORD PTR [esi]
	fnstsw	ax
	test	ah, 65					; 00000041H
	jne	SHORT $LN5@Merge@3
	fld	QWORD PTR [esi]
	jmp	SHORT $LN6@Merge@3
$LN5@Merge@3:
	fld	QWORD PTR [ecx]
$LN6@Merge@3:
	fstp	QWORD PTR [esi]
; Line 160
	fld	QWORD PTR [ecx+8]
	fcomp	QWORD PTR [esi+8]
	fnstsw	ax
	test	ah, 5
	jp	SHORT $LN7@Merge@3
	fld	QWORD PTR [esi+8]
	jmp	SHORT $LN8@Merge@3
$LN7@Merge@3:
	fld	QWORD PTR [ecx+8]
$LN8@Merge@3:
	fstp	QWORD PTR [esi+8]
; Line 161
	fld	QWORD PTR [ecx+16]
	fcomp	QWORD PTR [esi+16]
	fnstsw	ax
	test	ah, 65					; 00000041H
	jne	SHORT $LN9@Merge@3
	fld	QWORD PTR [esi+16]
	jmp	SHORT $LN10@Merge@3
$LN9@Merge@3:
	fld	QWORD PTR [ecx+16]
$LN10@Merge@3:
	fstp	QWORD PTR [esi+16]
; Line 162
	fld	QWORD PTR [ecx+24]
	fcomp	QWORD PTR [esi+24]
	fnstsw	ax
	test	ah, 5
	jp	SHORT $LN11@Merge@3
	fld	QWORD PTR [esi+24]
	jmp	SHORT $LN12@Merge@3
$LN11@Merge@3:
	fld	QWORD PTR [ecx+24]
$LN12@Merge@3:
	fstp	QWORD PTR [esi+24]
; Line 163
	fld	QWORD PTR [ecx+32]
	fcomp	QWORD PTR [esi+32]
	fnstsw	ax
	test	ah, 65					; 00000041H
	jne	SHORT $LN13@Merge@3
	fld	QWORD PTR [esi+32]
	jmp	SHORT $LN14@Merge@3
$LN13@Merge@3:
	fld	QWORD PTR [ecx+32]
$LN14@Merge@3:
	fstp	QWORD PTR [esi+32]
; Line 164
	fld	QWORD PTR [ecx+40]
	fcomp	QWORD PTR [esi+40]
	fnstsw	ax
	test	ah, 5
	jp	SHORT $LN15@Merge@3
	fld	QWORD PTR [esi+40]
; Line 173
	fstp	QWORD PTR [esi+40]
	pop	esi
; Line 175
	pop	ebp
	ret	4
$LN15@Merge@3:
; Line 164
	fld	QWORD PTR [ecx+40]
; Line 173
	fstp	QWORD PTR [esi+40]
	pop	esi
; Line 175
	pop	ebp
	ret	4
$LN2@Merge@3:
; Line 168
	mov	eax, DWORD PTR _sOther$[ebp]
	fld	QWORD PTR [eax]
	fstp	QWORD PTR [esi]
; Line 169
	fld	QWORD PTR [eax+8]
	fstp	QWORD PTR [esi+8]
; Line 170
	fld	QWORD PTR [eax+16]
	fstp	QWORD PTR [esi+16]
; Line 171
	fld	QWORD PTR [eax+24]
	fstp	QWORD PTR [esi+24]
; Line 172
	fld	QWORD PTR [eax+32]
	fstp	QWORD PTR [esi+32]
; Line 173
	fld	QWORD PTR [eax+40]
	fstp	QWORD PTR [esi+40]
	pop	esi
; Line 175
	pop	ebp
	ret	4
?Merge@OGREnvelope3D@@QAEXABV1@@Z ENDP			; OGREnvelope3D::Merge
_TEXT	ENDS
PUBLIC	?Merge@OGREnvelope3D@@QAEXNNN@Z			; OGREnvelope3D::Merge
; Function compile flags: /Ogtp
;	COMDAT ?Merge@OGREnvelope3D@@QAEXNNN@Z
_TEXT	SEGMENT
_dfX$ = 8						; size = 8
_dfY$ = 16						; size = 8
_dfZ$ = 24						; size = 8
?Merge@OGREnvelope3D@@QAEXNNN@Z PROC			; OGREnvelope3D::Merge, COMDAT
; _this$ = ecx
; Line 176
	push	ebp
	mov	ebp, esp
	push	esi
	mov	esi, ecx
; Line 177
	call	?IsInit@OGREnvelope3D@@QBEHXZ		; OGREnvelope3D::IsInit
; Line 179
	fld	QWORD PTR _dfX$[ebp]
	test	eax, eax
	je	SHORT $LN2@Merge@4
	fcom	QWORD PTR [esi]
	fnstsw	ax
	test	ah, 65					; 00000041H
	jne	SHORT $LN5@Merge@4
	fld	QWORD PTR [esi]
	jmp	SHORT $LN6@Merge@4
$LN5@Merge@4:
	fld	ST(0)
$LN6@Merge@4:
	fstp	QWORD PTR [esi]
; Line 180
	fcom	QWORD PTR [esi+8]
	fnstsw	ax
	test	ah, 5
	jp	SHORT $LN8@Merge@4
	fstp	ST(0)
	fld	QWORD PTR [esi+8]
$LN8@Merge@4:
	fstp	QWORD PTR [esi+8]
; Line 181
	fld	QWORD PTR _dfY$[ebp]
	fcom	QWORD PTR [esi+16]
	fnstsw	ax
	test	ah, 65					; 00000041H
	jne	SHORT $LN9@Merge@4
	fld	QWORD PTR [esi+16]
	jmp	SHORT $LN10@Merge@4
$LN9@Merge@4:
	fld	ST(0)
$LN10@Merge@4:
	fstp	QWORD PTR [esi+16]
; Line 182
	fcom	QWORD PTR [esi+24]
	fnstsw	ax
	test	ah, 5
	jp	SHORT $LN12@Merge@4
	fstp	ST(0)
	fld	QWORD PTR [esi+24]
$LN12@Merge@4:
	fstp	QWORD PTR [esi+24]
; Line 183
	fld	QWORD PTR _dfZ$[ebp]
	fcom	QWORD PTR [esi+32]
	fnstsw	ax
	test	ah, 65					; 00000041H
	jne	SHORT $LN13@Merge@4
	fld	QWORD PTR [esi+32]
	jmp	SHORT $LN14@Merge@4
$LN13@Merge@4:
	fld	ST(0)
$LN14@Merge@4:
	fstp	QWORD PTR [esi+32]
; Line 184
	fcom	QWORD PTR [esi+40]
	fnstsw	ax
	test	ah, 5
	jp	SHORT $LN16@Merge@4
	fstp	ST(0)
	fld	QWORD PTR [esi+40]
$LN16@Merge@4:
	fstp	QWORD PTR [esi+40]
	pop	esi
; Line 192
	pop	ebp
	ret	24					; 00000018H
$LN2@Merge@4:
; Line 188
	fst	QWORD PTR [esi+8]
	fstp	QWORD PTR [esi]
; Line 189
	fld	QWORD PTR _dfY$[ebp]
	fst	QWORD PTR [esi+24]
	fstp	QWORD PTR [esi+16]
; Line 190
	fld	QWORD PTR _dfZ$[ebp]
	fst	QWORD PTR [esi+40]
	fstp	QWORD PTR [esi+32]
	pop	esi
; Line 192
	pop	ebp
	ret	24					; 00000018H
?Merge@OGREnvelope3D@@QAEXNNN@Z ENDP			; OGREnvelope3D::Merge
_TEXT	ENDS
PUBLIC	?Intersects@OGREnvelope3D@@QBEHABV1@@Z		; OGREnvelope3D::Intersects
; Function compile flags: /Ogtp
;	COMDAT ?Intersects@OGREnvelope3D@@QBEHABV1@@Z
_TEXT	SEGMENT
_other$ = 8						; size = 4
?Intersects@OGREnvelope3D@@QBEHABV1@@Z PROC		; OGREnvelope3D::Intersects, COMDAT
; _this$ = ecx
; Line 228
	push	ebp
	mov	ebp, esp
; Line 231
	mov	edx, DWORD PTR _other$[ebp]
	fld	QWORD PTR [edx+8]
	fcomp	QWORD PTR [ecx]
	fnstsw	ax
	test	ah, 1
	jne	SHORT $LN3@Intersects@2
	fld	QWORD PTR [edx]
	fcomp	QWORD PTR [ecx+8]
	fnstsw	ax
	test	ah, 65					; 00000041H
	jp	SHORT $LN3@Intersects@2
	fld	QWORD PTR [edx+24]
	fcomp	QWORD PTR [ecx+16]
	fnstsw	ax
	test	ah, 1
	jne	SHORT $LN3@Intersects@2
	fld	QWORD PTR [edx+16]
	fcomp	QWORD PTR [ecx+24]
	fnstsw	ax
	test	ah, 65					; 00000041H
	jp	SHORT $LN3@Intersects@2
	fld	QWORD PTR [edx+40]
	fcomp	QWORD PTR [ecx+32]
	fnstsw	ax
	test	ah, 1
	jne	SHORT $LN3@Intersects@2
	fld	QWORD PTR [edx+32]
	fcomp	QWORD PTR [ecx+40]
	fnstsw	ax
	test	ah, 65					; 00000041H
	jp	SHORT $LN3@Intersects@2
	mov	eax, 1
; Line 232
	pop	ebp
	ret	4
$LN3@Intersects@2:
; Line 231
	xor	eax, eax
; Line 232
	pop	ebp
	ret	4
?Intersects@OGREnvelope3D@@QBEHABV1@@Z ENDP		; OGREnvelope3D::Intersects
_TEXT	ENDS
PUBLIC	?Contains@OGREnvelope3D@@QBEHABV1@@Z		; OGREnvelope3D::Contains
; Function compile flags: /Ogtp
;	COMDAT ?Contains@OGREnvelope3D@@QBEHABV1@@Z
_TEXT	SEGMENT
_other$ = 8						; size = 4
?Contains@OGREnvelope3D@@QBEHABV1@@Z PROC		; OGREnvelope3D::Contains, COMDAT
; _this$ = ecx
; Line 235
	push	ebp
	mov	ebp, esp
; Line 238
	mov	edx, DWORD PTR _other$[ebp]
	fld	QWORD PTR [edx]
	fcomp	QWORD PTR [ecx]
	fnstsw	ax
	test	ah, 1
	jne	SHORT $LN3@Contains@2
	fld	QWORD PTR [edx+16]
	fcomp	QWORD PTR [ecx+16]
	fnstsw	ax
	test	ah, 1
	jne	SHORT $LN3@Contains@2
	fld	QWORD PTR [edx+8]
	fcomp	QWORD PTR [ecx+8]
	fnstsw	ax
	test	ah, 65					; 00000041H
	jp	SHORT $LN3@Contains@2
	fld	QWORD PTR [edx+24]
	fcomp	QWORD PTR [ecx+24]
	fnstsw	ax
	test	ah, 65					; 00000041H
	jp	SHORT $LN3@Contains@2
	fld	QWORD PTR [edx+40]
	fcomp	QWORD PTR [ecx+40]
	fnstsw	ax
	test	ah, 65					; 00000041H
	jp	SHORT $LN3@Contains@2
	fld	QWORD PTR [edx+40]
	fcomp	QWORD PTR [ecx+40]
	fnstsw	ax
	test	ah, 65					; 00000041H
	jp	SHORT $LN3@Contains@2
	mov	eax, 1
; Line 239
	pop	ebp
	ret	4
$LN3@Contains@2:
; Line 238
	xor	eax, eax
; Line 239
	pop	ebp
	ret	4
?Contains@OGREnvelope3D@@QBEHABV1@@Z ENDP		; OGREnvelope3D::Contains
_TEXT	ENDS
PUBLIC	??4OGREnvelope3D@@QAEAAV0@ABV0@@Z		; OGREnvelope3D::operator=
; Function compile flags: /Ogtp
;	COMDAT ??4OGREnvelope3D@@QAEAAV0@ABV0@@Z
_TEXT	SEGMENT
___that$ = 8						; size = 4
??4OGREnvelope3D@@QAEAAV0@ABV0@@Z PROC			; OGREnvelope3D::operator=, COMDAT
; _this$ = ecx
	push	ebp
	mov	ebp, esp
	push	esi
	mov	esi, DWORD PTR ___that$[ebp]
	push	edi
	mov	eax, ecx
	mov	ecx, 12					; 0000000cH
	mov	edi, eax
	rep movsd
	pop	edi
	pop	esi
	pop	ebp
	ret	4
??4OGREnvelope3D@@QAEAAV0@ABV0@@Z ENDP			; OGREnvelope3D::operator=
_TEXT	ENDS
PUBLIC	?IsLeafNode@OGR_SRSNode@@QBEHXZ			; OGR_SRSNode::IsLeafNode
; Function compile flags: /Ogtp
;	COMDAT ?IsLeafNode@OGR_SRSNode@@QBEHXZ
_TEXT	SEGMENT
?IsLeafNode@OGR_SRSNode@@QBEHXZ PROC			; OGR_SRSNode::IsLeafNode, COMDAT
; _this$ = ecx
; File c:\osgeo4w\include\ogr_spatialref.h
; Line 74
	xor	eax, eax
	cmp	DWORD PTR [ecx+12], eax
	sete	al
	ret	0
?IsLeafNode@OGR_SRSNode@@QBEHXZ ENDP			; OGR_SRSNode::IsLeafNode
_TEXT	ENDS
PUBLIC	?GetChildCount@OGR_SRSNode@@QBEHXZ		; OGR_SRSNode::GetChildCount
; Function compile flags: /Ogtp
;	COMDAT ?GetChildCount@OGR_SRSNode@@QBEHXZ
_TEXT	SEGMENT
?GetChildCount@OGR_SRSNode@@QBEHXZ PROC			; OGR_SRSNode::GetChildCount, COMDAT
; _this$ = ecx
; Line 76
	mov	eax, DWORD PTR [ecx+12]
	ret	0
?GetChildCount@OGR_SRSNode@@QBEHXZ ENDP			; OGR_SRSNode::GetChildCount
_TEXT	ENDS
PUBLIC	?GetValue@OGR_SRSNode@@QBEPBDXZ			; OGR_SRSNode::GetValue
; Function compile flags: /Ogtp
;	COMDAT ?GetValue@OGR_SRSNode@@QBEPBDXZ
_TEXT	SEGMENT
?GetValue@OGR_SRSNode@@QBEPBDXZ PROC			; OGR_SRSNode::GetValue, COMDAT
; _this$ = ecx
; Line 90
	mov	eax, DWORD PTR [ecx]
	ret	0
?GetValue@OGR_SRSNode@@QBEPBDXZ ENDP			; OGR_SRSNode::GetValue
_TEXT	ENDS
PUBLIC	??4OGR_SRSNode@@QAEAAV0@ABV0@@Z			; OGR_SRSNode::operator=
; Function compile flags: /Ogtp
;	COMDAT ??4OGR_SRSNode@@QAEAAV0@ABV0@@Z
_TEXT	SEGMENT
___that$ = 8						; size = 4
??4OGR_SRSNode@@QAEAAV0@ABV0@@Z PROC			; OGR_SRSNode::operator=, COMDAT
; _this$ = ecx
	push	ebp
	mov	ebp, esp
	mov	eax, ecx
	mov	ecx, DWORD PTR ___that$[ebp]
	mov	edx, DWORD PTR [ecx]
	mov	DWORD PTR [eax], edx
	mov	edx, DWORD PTR [ecx+4]
	mov	DWORD PTR [eax+4], edx
	mov	edx, DWORD PTR [ecx+8]
	mov	DWORD PTR [eax+8], edx
	mov	ecx, DWORD PTR [ecx+12]
	mov	DWORD PTR [eax+12], ecx
	pop	ebp
	ret	4
??4OGR_SRSNode@@QAEAAV0@ABV0@@Z ENDP			; OGR_SRSNode::operator=
_TEXT	ENDS
PUBLIC	??_FOGR_SRSNode@@QAEXXZ				; OGR_SRSNode::`default constructor closure'
EXTRN	??0OGR_SRSNode@@QAE@PBD@Z:PROC			; OGR_SRSNode::OGR_SRSNode
; Function compile flags: /Ogtp
;	COMDAT ??_FOGR_SRSNode@@QAEXXZ
_TEXT	SEGMENT
??_FOGR_SRSNode@@QAEXXZ PROC				; OGR_SRSNode::`default constructor closure', COMDAT
; _this$ = ecx
	push	0
	call	??0OGR_SRSNode@@QAE@PBD@Z		; OGR_SRSNode::OGR_SRSNode
	ret	0
??_FOGR_SRSNode@@QAEXXZ ENDP				; OGR_SRSNode::`default constructor closure'
_TEXT	ENDS
PUBLIC	?GetReferenceCount@OGRSpatialReference@@QBEHXZ	; OGRSpatialReference::GetReferenceCount
; Function compile flags: /Ogtp
;	COMDAT ?GetReferenceCount@OGRSpatialReference@@QBEHXZ
_TEXT	SEGMENT
?GetReferenceCount@OGRSpatialReference@@QBEHXZ PROC	; OGRSpatialReference::GetReferenceCount, COMDAT
; _this$ = ecx
; Line 162
	mov	eax, DWORD PTR [ecx+36]
	ret	0
?GetReferenceCount@OGRSpatialReference@@QBEHXZ ENDP	; OGRSpatialReference::GetReferenceCount
_TEXT	ENDS
PUBLIC	?GetRoot@OGRSpatialReference@@QAEPAVOGR_SRSNode@@XZ ; OGRSpatialReference::GetRoot
; Function compile flags: /Ogtp
;	COMDAT ?GetRoot@OGRSpatialReference@@QAEPAVOGR_SRSNode@@XZ
_TEXT	SEGMENT
?GetRoot@OGRSpatialReference@@QAEPAVOGR_SRSNode@@XZ PROC ; OGRSpatialReference::GetRoot, COMDAT
; _this$ = ecx
; Line 219
	mov	eax, DWORD PTR [ecx+32]
	ret	0
?GetRoot@OGRSpatialReference@@QAEPAVOGR_SRSNode@@XZ ENDP ; OGRSpatialReference::GetRoot
_TEXT	ENDS
PUBLIC	?GetRoot@OGRSpatialReference@@QBEPBVOGR_SRSNode@@XZ ; OGRSpatialReference::GetRoot
; Function compile flags: /Ogtp
;	COMDAT ?GetRoot@OGRSpatialReference@@QBEPBVOGR_SRSNode@@XZ
_TEXT	SEGMENT
?GetRoot@OGRSpatialReference@@QBEPBVOGR_SRSNode@@XZ PROC ; OGRSpatialReference::GetRoot, COMDAT
; _this$ = ecx
; Line 220
	mov	eax, DWORD PTR [ecx+32]
	ret	0
?GetRoot@OGRSpatialReference@@QBEPBVOGR_SRSNode@@XZ ENDP ; OGRSpatialReference::GetRoot
_TEXT	ENDS
PUBLIC	??_FOGRSpatialReference@@QAEXXZ			; OGRSpatialReference::`default constructor closure'
EXTRN	??0OGRSpatialReference@@QAE@PBD@Z:PROC		; OGRSpatialReference::OGRSpatialReference
; Function compile flags: /Ogtp
;	COMDAT ??_FOGRSpatialReference@@QAEXXZ
_TEXT	SEGMENT
??_FOGRSpatialReference@@QAEXXZ PROC			; OGRSpatialReference::`default constructor closure', COMDAT
; _this$ = ecx
	push	0
	call	??0OGRSpatialReference@@QAE@PBD@Z	; OGRSpatialReference::OGRSpatialReference
	ret	0
??_FOGRSpatialReference@@QAEXXZ ENDP			; OGRSpatialReference::`default constructor closure'
_TEXT	ENDS
PUBLIC	??_7OGRCoordinateTransformation@@6B@		; OGRCoordinateTransformation::`vftable'
PUBLIC	??1OGRCoordinateTransformation@@UAE@XZ		; OGRCoordinateTransformation::~OGRCoordinateTransformation
PUBLIC	??_R4OGRCoordinateTransformation@@6B@		; OGRCoordinateTransformation::`RTTI Complete Object Locator'
PUBLIC	??_R0?AVOGRCoordinateTransformation@@@8		; OGRCoordinateTransformation `RTTI Type Descriptor'
PUBLIC	??_R3OGRCoordinateTransformation@@8		; OGRCoordinateTransformation::`RTTI Class Hierarchy Descriptor'
PUBLIC	??_R2OGRCoordinateTransformation@@8		; OGRCoordinateTransformation::`RTTI Base Class Array'
PUBLIC	??_R1A@?0A@EA@OGRCoordinateTransformation@@8	; OGRCoordinateTransformation::`RTTI Base Class Descriptor at (0,-1,0,64)'
PUBLIC	??_EOGRCoordinateTransformation@@UAEPAXI@Z	; OGRCoordinateTransformation::`vector deleting destructor'
EXTRN	__purecall:PROC
;	COMDAT ??_R1A@?0A@EA@OGRCoordinateTransformation@@8
rdata$r	SEGMENT
??_R1A@?0A@EA@OGRCoordinateTransformation@@8 DD FLAT:??_R0?AVOGRCoordinateTransformation@@@8 ; OGRCoordinateTransformation::`RTTI Base Class Descriptor at (0,-1,0,64)'
	DD	00H
	DD	00H
	DD	0ffffffffH
	DD	00H
	DD	040H
	DD	FLAT:??_R3OGRCoordinateTransformation@@8
rdata$r	ENDS
;	COMDAT ??_R2OGRCoordinateTransformation@@8
rdata$r	SEGMENT
??_R2OGRCoordinateTransformation@@8 DD FLAT:??_R1A@?0A@EA@OGRCoordinateTransformation@@8 ; OGRCoordinateTransformation::`RTTI Base Class Array'
rdata$r	ENDS
;	COMDAT ??_R3OGRCoordinateTransformation@@8
rdata$r	SEGMENT
??_R3OGRCoordinateTransformation@@8 DD 00H		; OGRCoordinateTransformation::`RTTI Class Hierarchy Descriptor'
	DD	00H
	DD	01H
	DD	FLAT:??_R2OGRCoordinateTransformation@@8
rdata$r	ENDS
;	COMDAT ??_R0?AVOGRCoordinateTransformation@@@8
_DATA	SEGMENT
??_R0?AVOGRCoordinateTransformation@@@8 DD FLAT:??_7type_info@@6B@ ; OGRCoordinateTransformation `RTTI Type Descriptor'
	DD	00H
	DB	'.?AVOGRCoordinateTransformation@@', 00H
_DATA	ENDS
;	COMDAT ??_R4OGRCoordinateTransformation@@6B@
rdata$r	SEGMENT
??_R4OGRCoordinateTransformation@@6B@ DD 00H		; OGRCoordinateTransformation::`RTTI Complete Object Locator'
	DD	00H
	DD	00H
	DD	FLAT:??_R0?AVOGRCoordinateTransformation@@@8
	DD	FLAT:??_R3OGRCoordinateTransformation@@8
rdata$r	ENDS
;	COMDAT ??_7OGRCoordinateTransformation@@6B@
CONST	SEGMENT
??_7OGRCoordinateTransformation@@6B@ DD FLAT:??_R4OGRCoordinateTransformation@@6B@ ; OGRCoordinateTransformation::`vftable'
	DD	FLAT:??_EOGRCoordinateTransformation@@UAEPAXI@Z
	DD	FLAT:__purecall
	DD	FLAT:__purecall
	DD	FLAT:__purecall
	DD	FLAT:__purecall
; Function compile flags: /Ogtp
CONST	ENDS
;	COMDAT ??1OGRCoordinateTransformation@@UAE@XZ
_TEXT	SEGMENT
??1OGRCoordinateTransformation@@UAE@XZ PROC		; OGRCoordinateTransformation::~OGRCoordinateTransformation, COMDAT
; _this$ = ecx
; Line 552
	mov	DWORD PTR [ecx], OFFSET ??_7OGRCoordinateTransformation@@6B@
	ret	0
??1OGRCoordinateTransformation@@UAE@XZ ENDP		; OGRCoordinateTransformation::~OGRCoordinateTransformation
_TEXT	ENDS
PUBLIC	??0OGRCoordinateTransformation@@QAE@XZ		; OGRCoordinateTransformation::OGRCoordinateTransformation
; Function compile flags: /Ogtp
;	COMDAT ??0OGRCoordinateTransformation@@QAE@XZ
_TEXT	SEGMENT
??0OGRCoordinateTransformation@@QAE@XZ PROC		; OGRCoordinateTransformation::OGRCoordinateTransformation, COMDAT
; _this$ = ecx
	mov	eax, ecx
	mov	DWORD PTR [eax], OFFSET ??_7OGRCoordinateTransformation@@6B@
	ret	0
??0OGRCoordinateTransformation@@QAE@XZ ENDP		; OGRCoordinateTransformation::OGRCoordinateTransformation
_TEXT	ENDS
PUBLIC	??0OGRCoordinateTransformation@@QAE@ABV0@@Z	; OGRCoordinateTransformation::OGRCoordinateTransformation
; Function compile flags: /Ogtp
;	COMDAT ??0OGRCoordinateTransformation@@QAE@ABV0@@Z
_TEXT	SEGMENT
___that$ = 8						; size = 4
??0OGRCoordinateTransformation@@QAE@ABV0@@Z PROC	; OGRCoordinateTransformation::OGRCoordinateTransformation, COMDAT
; _this$ = ecx
	mov	eax, ecx
	mov	DWORD PTR [eax], OFFSET ??_7OGRCoordinateTransformation@@6B@
	ret	4
??0OGRCoordinateTransformation@@QAE@ABV0@@Z ENDP	; OGRCoordinateTransformation::OGRCoordinateTransformation
_TEXT	ENDS
PUBLIC	??4OGRCoordinateTransformation@@QAEAAV0@ABV0@@Z	; OGRCoordinateTransformation::operator=
; Function compile flags: /Ogtp
;	COMDAT ??4OGRCoordinateTransformation@@QAEAAV0@ABV0@@Z
_TEXT	SEGMENT
___that$ = 8						; size = 4
??4OGRCoordinateTransformation@@QAEAAV0@ABV0@@Z PROC	; OGRCoordinateTransformation::operator=, COMDAT
; _this$ = ecx
	mov	eax, ecx
	ret	4
??4OGRCoordinateTransformation@@QAEAAV0@ABV0@@Z ENDP	; OGRCoordinateTransformation::operator=
_TEXT	ENDS
PUBLIC	??_GOGRCoordinateTransformation@@UAEPAXI@Z	; OGRCoordinateTransformation::`scalar deleting destructor'
; Function compile flags: /Ogtp
;	COMDAT ??_GOGRCoordinateTransformation@@UAEPAXI@Z
_TEXT	SEGMENT
___flags$ = 8						; size = 4
??_GOGRCoordinateTransformation@@UAEPAXI@Z PROC		; OGRCoordinateTransformation::`scalar deleting destructor', COMDAT
; _this$ = ecx
	push	ebp
	mov	ebp, esp
	test	BYTE PTR ___flags$[ebp], 1
	push	esi
	mov	esi, ecx
	mov	DWORD PTR [esi], OFFSET ??_7OGRCoordinateTransformation@@6B@
	je	SHORT $LN6@scalar@2
	push	esi
	call	??3@YAXPAX@Z				; operator delete
	add	esp, 4
$LN6@scalar@2:
	mov	eax, esi
	pop	esi
	pop	ebp
	ret	4
??_GOGRCoordinateTransformation@@UAEPAXI@Z ENDP		; OGRCoordinateTransformation::`scalar deleting destructor'
_TEXT	ENDS
EXTRN	??_V@YAXPAX@Z:PROC				; operator delete[]
EXTRN	??_M@YGXPAXIHP6EX0@Z@Z:PROC			; `eh vector destructor iterator'
; Function compile flags: /Ogtp
;	COMDAT ??_EOGRCoordinateTransformation@@UAEPAXI@Z
_TEXT	SEGMENT
___flags$ = 8						; size = 4
??_EOGRCoordinateTransformation@@UAEPAXI@Z PROC		; OGRCoordinateTransformation::`vector deleting destructor', COMDAT
; _this$ = ecx
	push	ebp
	mov	ebp, esp
	push	ebx
	mov	bl, BYTE PTR ___flags$[ebp]
	push	esi
	mov	esi, ecx
	test	bl, 2
	je	SHORT $LN3@vector
	mov	eax, DWORD PTR [esi-4]
	push	edi
	push	OFFSET ??1OGRCoordinateTransformation@@UAE@XZ ; OGRCoordinateTransformation::~OGRCoordinateTransformation
	lea	edi, DWORD PTR [esi-4]
	push	eax
	push	4
	push	esi
	call	??_M@YGXPAXIHP6EX0@Z@Z
	test	bl, 1
	je	SHORT $LN2@vector
	push	edi
	call	??_V@YAXPAX@Z				; operator delete[]
	add	esp, 4
$LN2@vector:
	mov	eax, edi
	pop	edi
	pop	esi
	pop	ebx
	pop	ebp
	ret	4
$LN3@vector:
	mov	DWORD PTR [esi], OFFSET ??_7OGRCoordinateTransformation@@6B@
	test	bl, 1
	je	SHORT $LN1@vector
	push	esi
	call	??3@YAXPAX@Z				; operator delete
	add	esp, 4
$LN1@vector:
	mov	eax, esi
	pop	esi
	pop	ebx
	pop	ebp
	ret	4
??_EOGRCoordinateTransformation@@UAEPAXI@Z ENDP		; OGRCoordinateTransformation::`vector deleting destructor'
_TEXT	ENDS
PUBLIC	?readImageFile@osgDB@@YAPAVImage@osg@@ABV?$basic_string@DU?$char_traits@D@std@@V?$allocator@D@2@@std@@@Z ; osgDB::readImageFile
EXTRN	__imp_?readImageFile@osgDB@@YAPAVImage@osg@@ABV?$basic_string@DU?$char_traits@D@std@@V?$allocator@D@2@@std@@PBVOptions@1@@Z:PROC
EXTRN	__imp_?getOptions@Registry@osgDB@@QAEPAVOptions@2@XZ:PROC
EXTRN	__imp_?instance@Registry@osgDB@@SAPAV12@_N@Z:PROC
; Function compile flags: /Ogtp
;	COMDAT ?readImageFile@osgDB@@YAPAVImage@osg@@ABV?$basic_string@DU?$char_traits@D@std@@V?$allocator@D@2@@std@@@Z
_TEXT	SEGMENT
_filename$ = 8						; size = 4
?readImageFile@osgDB@@YAPAVImage@osg@@ABV?$basic_string@DU?$char_traits@D@std@@V?$allocator@D@2@@std@@@Z PROC ; osgDB::readImageFile, COMDAT
; File c:\openscenegraph-3.0.1-vs10.0-x86\include\osgdb\readfile
; Line 65
	push	ebp
	mov	ebp, esp
; Line 66
	push	0
	call	DWORD PTR __imp_?instance@Registry@osgDB@@SAPAV12@_N@Z
	add	esp, 4
	mov	ecx, eax
	call	DWORD PTR __imp_?getOptions@Registry@osgDB@@QAEPAVOptions@2@XZ
	push	eax
	mov	eax, DWORD PTR _filename$[ebp]
	push	eax
	call	DWORD PTR __imp_?readImageFile@osgDB@@YAPAVImage@osg@@ABV?$basic_string@DU?$char_traits@D@std@@V?$allocator@D@2@@std@@PBVOptions@1@@Z
	add	esp, 8
; Line 67
	pop	ebp
	ret	0
?readImageFile@osgDB@@YAPAVImage@osg@@ABV?$basic_string@DU?$char_traits@D@std@@V?$allocator@D@2@@std@@@Z ENDP ; osgDB::readImageFile
_TEXT	ENDS
PUBLIC	?s2v@@YAXABVVec3f@osg@@AAVFPoint3@@@Z		; s2v
; Function compile flags: /Ogtp
;	COMDAT ?s2v@@YAXABVVec3f@osg@@AAVFPoint3@@@Z
_TEXT	SEGMENT
_s$ = 8							; size = 4
_f$ = 12						; size = 4
?s2v@@YAXABVVec3f@osg@@AAVFPoint3@@@Z PROC		; s2v, COMDAT
; File c:\openframeworks\addons\ofxvterrain\libs\src\vtlib\vtosg\mathosg.h
; Line 67
	push	ebp
	mov	ebp, esp
	mov	eax, DWORD PTR _s$[ebp]
	fld	DWORD PTR [eax]
	mov	ecx, DWORD PTR _f$[ebp]
	fstp	DWORD PTR [ecx]
	fld	DWORD PTR [eax+4]
	fstp	DWORD PTR [ecx+4]
	fld	DWORD PTR [eax+8]
	fstp	DWORD PTR [ecx+8]
	pop	ebp
	ret	0
?s2v@@YAXABVVec3f@osg@@AAVFPoint3@@@Z ENDP		; s2v
_TEXT	ENDS
PUBLIC	?s2v@@YAXABV?$BoundingSphereImpl@VVec3f@osg@@@osg@@AAVFSphere@@@Z ; s2v
; Function compile flags: /Ogtp
;	COMDAT ?s2v@@YAXABV?$BoundingSphereImpl@VVec3f@osg@@@osg@@AAVFSphere@@@Z
_TEXT	SEGMENT
_bs$ = 8						; size = 4
_sph$ = 12						; size = 4
?s2v@@YAXABV?$BoundingSphereImpl@VVec3f@osg@@@osg@@AAVFSphere@@@Z PROC ; s2v, COMDAT
; Line 73
	push	ebp
	mov	ebp, esp
; Line 74
	mov	eax, DWORD PTR _bs$[ebp]
	fld	DWORD PTR [eax]
	mov	ecx, DWORD PTR _sph$[ebp]
	fstp	DWORD PTR [ecx]
	fld	DWORD PTR [eax+4]
	fstp	DWORD PTR [ecx+4]
	fld	DWORD PTR [eax+8]
	fstp	DWORD PTR [ecx+8]
; Line 75
	fld	DWORD PTR [eax+12]
	fstp	DWORD PTR [ecx+12]
; Line 76
	pop	ebp
	ret	0
?s2v@@YAXABV?$BoundingSphereImpl@VVec3f@osg@@@osg@@AAVFSphere@@@Z ENDP ; s2v
_TEXT	ENDS
PUBLIC	??_H@YGXPAXIHP6EPAX0@Z@Z			; `vector constructor iterator'
; Function compile flags: /Ogtp
;	COMDAT ??_H@YGXPAXIHP6EPAX0@Z@Z
_TEXT	SEGMENT
___t$ = 8						; size = 4
___s$ = 12						; size = 4
___n$ = 16						; size = 4
___f$ = 20						; size = 4
??_H@YGXPAXIHP6EPAX0@Z@Z PROC				; `vector constructor iterator', COMDAT
	push	ebp
	mov	ebp, esp
	push	edi
	mov	edi, DWORD PTR ___n$[ebp]
	dec	edi
	js	SHORT $LN1@vector@2
	push	ebx
	mov	ebx, DWORD PTR ___f$[ebp]
	push	esi
	mov	esi, DWORD PTR ___t$[ebp]
$LL2@vector@2:
	mov	ecx, esi
	call	ebx
	add	esi, DWORD PTR ___s$[ebp]
	dec	edi
	jns	SHORT $LL2@vector@2
	pop	esi
	pop	ebx
$LN1@vector@2:
	pop	edi
	pop	ebp
	ret	16					; 00000010H
??_H@YGXPAXIHP6EPAX0@Z@Z ENDP				; `vector constructor iterator'
_TEXT	ENDS
PUBLIC	??BvtString@@QBEPBDXZ				; vtString::operator char const *
; Function compile flags: /Ogtp
;	COMDAT ??BvtString@@QBEPBDXZ
_TEXT	SEGMENT
??BvtString@@QBEPBDXZ PROC				; vtString::operator char const *, COMDAT
; _this$ = ecx
; File c:\openframeworks\addons\ofxvterrain\libs\src\vtdata\vtstring.h
; Line 289
	mov	eax, DWORD PTR [ecx]
	ret	0
??BvtString@@QBEPBDXZ ENDP				; vtString::operator char const *
_TEXT	ENDS
PUBLIC	?Compare@vtString@@QBEHPBD@Z			; vtString::Compare
; Function compile flags: /Ogtp
;	COMDAT ?Compare@vtString@@QBEHPBD@Z
_TEXT	SEGMENT
_lpsz$ = 8						; size = 4
?Compare@vtString@@QBEHPBD@Z PROC			; vtString::Compare, COMDAT
; _this$ = ecx
; Line 295
	push	ebp
	mov	ebp, esp
	mov	edx, DWORD PTR _lpsz$[ebp]
	mov	eax, DWORD PTR [ecx]
$LL3@Compare:
	mov	cl, BYTE PTR [eax]
	cmp	cl, BYTE PTR [edx]
	jne	SHORT $LN4@Compare
	test	cl, cl
	je	SHORT $LN5@Compare
	mov	cl, BYTE PTR [eax+1]
	cmp	cl, BYTE PTR [edx+1]
	jne	SHORT $LN4@Compare
	add	eax, 2
	add	edx, 2
	test	cl, cl
	jne	SHORT $LL3@Compare
$LN5@Compare:
	xor	eax, eax
	pop	ebp
	ret	4
$LN4@Compare:
	sbb	eax, eax
	sbb	eax, -1
	pop	ebp
	ret	4
?Compare@vtString@@QBEHPBD@Z ENDP			; vtString::Compare
_TEXT	ENDS
PUBLIC	?CompareNoCase@vtString@@QBEHPBD@Z		; vtString::CompareNoCase
EXTRN	__imp___stricmp:PROC
; Function compile flags: /Ogtp
;	COMDAT ?CompareNoCase@vtString@@QBEHPBD@Z
_TEXT	SEGMENT
_lpsz$ = 8						; size = 4
?CompareNoCase@vtString@@QBEHPBD@Z PROC			; vtString::CompareNoCase, COMDAT
; _this$ = ecx
; Line 297
	push	ebp
	mov	ebp, esp
	mov	eax, DWORD PTR _lpsz$[ebp]
	mov	ecx, DWORD PTR [ecx]
	push	eax
	push	ecx
	call	DWORD PTR __imp___stricmp
	add	esp, 8
	pop	ebp
	ret	4
?CompareNoCase@vtString@@QBEHPBD@Z ENDP			; vtString::CompareNoCase
_TEXT	ENDS
PUBLIC	??8@YA_NABVvtString@@PBD@Z			; operator==
; Function compile flags: /Ogtp
;	COMDAT ??8@YA_NABVvtString@@PBD@Z
_TEXT	SEGMENT
_s1$ = 8						; size = 4
_s2$ = 12						; size = 4
??8@YA_NABVvtString@@PBD@Z PROC				; operator==, COMDAT
; Line 311
	push	ebp
	mov	ebp, esp
	mov	eax, DWORD PTR _s1$[ebp]
	mov	edx, DWORD PTR _s2$[ebp]
	mov	ecx, DWORD PTR [eax]
	npad	5
$LL5@operator@2:
	mov	al, BYTE PTR [ecx]
	cmp	al, BYTE PTR [edx]
	jne	SHORT $LN6@operator@2
	test	al, al
	je	SHORT $LN7@operator@2
	mov	al, BYTE PTR [ecx+1]
	cmp	al, BYTE PTR [edx+1]
	jne	SHORT $LN6@operator@2
	add	ecx, 2
	add	edx, 2
	test	al, al
	jne	SHORT $LL5@operator@2
$LN7@operator@2:
	xor	eax, eax
	xor	ecx, ecx
	test	eax, eax
	sete	al
	pop	ebp
	ret	0
$LN6@operator@2:
	sbb	eax, eax
	sbb	eax, -1
	xor	ecx, ecx
	test	eax, eax
	sete	al
	pop	ebp
	ret	0
??8@YA_NABVvtString@@PBD@Z ENDP				; operator==
_TEXT	ENDS
PUBLIC	??_7vtEnabledBase@@6B@				; vtEnabledBase::`vftable'
PUBLIC	??0vtEnabledBase@@QAE@XZ			; vtEnabledBase::vtEnabledBase
PUBLIC	??_R4vtEnabledBase@@6B@				; vtEnabledBase::`RTTI Complete Object Locator'
PUBLIC	??_R0?AVvtEnabledBase@@@8			; vtEnabledBase `RTTI Type Descriptor'
PUBLIC	??_R3vtEnabledBase@@8				; vtEnabledBase::`RTTI Class Hierarchy Descriptor'
PUBLIC	??_R2vtEnabledBase@@8				; vtEnabledBase::`RTTI Base Class Array'
PUBLIC	??_R1A@?0A@EA@vtEnabledBase@@8			; vtEnabledBase::`RTTI Base Class Descriptor at (0,-1,0,64)'
PUBLIC	?SetEnabled@vtEnabledBase@@UAEX_N@Z		; vtEnabledBase::SetEnabled
;	COMDAT ??_R1A@?0A@EA@vtEnabledBase@@8
; File c:\openframeworks\addons\ofxvterrain\libs\src\vtlib\core\engine.h
rdata$r	SEGMENT
??_R1A@?0A@EA@vtEnabledBase@@8 DD FLAT:??_R0?AVvtEnabledBase@@@8 ; vtEnabledBase::`RTTI Base Class Descriptor at (0,-1,0,64)'
	DD	00H
	DD	00H
	DD	0ffffffffH
	DD	00H
	DD	040H
	DD	FLAT:??_R3vtEnabledBase@@8
rdata$r	ENDS
;	COMDAT ??_R2vtEnabledBase@@8
rdata$r	SEGMENT
??_R2vtEnabledBase@@8 DD FLAT:??_R1A@?0A@EA@vtEnabledBase@@8 ; vtEnabledBase::`RTTI Base Class Array'
rdata$r	ENDS
;	COMDAT ??_R3vtEnabledBase@@8
rdata$r	SEGMENT
??_R3vtEnabledBase@@8 DD 00H				; vtEnabledBase::`RTTI Class Hierarchy Descriptor'
	DD	00H
	DD	01H
	DD	FLAT:??_R2vtEnabledBase@@8
rdata$r	ENDS
;	COMDAT ??_R0?AVvtEnabledBase@@@8
_DATA	SEGMENT
??_R0?AVvtEnabledBase@@@8 DD FLAT:??_7type_info@@6B@	; vtEnabledBase `RTTI Type Descriptor'
	DD	00H
	DB	'.?AVvtEnabledBase@@', 00H
_DATA	ENDS
;	COMDAT ??_R4vtEnabledBase@@6B@
rdata$r	SEGMENT
??_R4vtEnabledBase@@6B@ DD 00H				; vtEnabledBase::`RTTI Complete Object Locator'
	DD	00H
	DD	00H
	DD	FLAT:??_R0?AVvtEnabledBase@@@8
	DD	FLAT:??_R3vtEnabledBase@@8
rdata$r	ENDS
;	COMDAT ??_7vtEnabledBase@@6B@
CONST	SEGMENT
??_7vtEnabledBase@@6B@ DD FLAT:??_R4vtEnabledBase@@6B@	; vtEnabledBase::`vftable'
	DD	FLAT:?SetEnabled@vtEnabledBase@@UAEX_N@Z
; Function compile flags: /Ogtp
CONST	ENDS
;	COMDAT ??0vtEnabledBase@@QAE@XZ
_TEXT	SEGMENT
??0vtEnabledBase@@QAE@XZ PROC				; vtEnabledBase::vtEnabledBase, COMDAT
; _this$ = ecx
; Line 31
	mov	eax, ecx
	mov	DWORD PTR [eax], OFFSET ??_7vtEnabledBase@@6B@
	mov	BYTE PTR [eax+4], 1
	ret	0
??0vtEnabledBase@@QAE@XZ ENDP				; vtEnabledBase::vtEnabledBase
; Function compile flags: /Ogtp
_TEXT	ENDS
;	COMDAT ?SetEnabled@vtEnabledBase@@UAEX_N@Z
_TEXT	SEGMENT
_bOn$ = 8						; size = 1
?SetEnabled@vtEnabledBase@@UAEX_N@Z PROC		; vtEnabledBase::SetEnabled, COMDAT
; _this$ = ecx
; Line 33
	push	ebp
	mov	ebp, esp
	mov	al, BYTE PTR _bOn$[ebp]
	mov	BYTE PTR [ecx+4], al
	pop	ebp
	ret	4
?SetEnabled@vtEnabledBase@@UAEX_N@Z ENDP		; vtEnabledBase::SetEnabled
_TEXT	ENDS
PUBLIC	?Select@Selectable@@QAEX_N@Z			; Selectable::Select
; Function compile flags: /Ogtp
;	COMDAT ?Select@Selectable@@QAEX_N@Z
_TEXT	SEGMENT
_b$ = 8							; size = 1
?Select@Selectable@@QAEX_N@Z PROC			; Selectable::Select, COMDAT
; _this$ = ecx
; File c:\openframeworks\addons\ofxvterrain\libs\src\vtdata\selectable.h
; Line 16
	push	ebp
	mov	ebp, esp
	mov	al, BYTE PTR _b$[ebp]
	mov	BYTE PTR [ecx], al
	pop	ebp
	ret	4
?Select@Selectable@@QAEX_N@Z ENDP			; Selectable::Select
_TEXT	ENDS
PUBLIC	?IsSelected@Selectable@@QAE_NXZ			; Selectable::IsSelected
; Function compile flags: /Ogtp
;	COMDAT ?IsSelected@Selectable@@QAE_NXZ
_TEXT	SEGMENT
?IsSelected@Selectable@@QAE_NXZ PROC			; Selectable::IsSelected, COMDAT
; _this$ = ecx
; Line 17
	mov	al, BYTE PTR [ecx]
	ret	0
?IsSelected@Selectable@@QAE_NXZ ENDP			; Selectable::IsSelected
_TEXT	ENDS
PUBLIC	?GetName@vtMaterialDescriptor@@QBEABVvtString@@XZ ; vtMaterialDescriptor::GetName
; Function compile flags: /Ogtp
;	COMDAT ?GetName@vtMaterialDescriptor@@QBEABVvtString@@XZ
_TEXT	SEGMENT
?GetName@vtMaterialDescriptor@@QBEABVvtString@@XZ PROC	; vtMaterialDescriptor::GetName, COMDAT
; _this$ = ecx
; File c:\openframeworks\addons\ofxvterrain\libs\src\vtdata\structure.h
; Line 69
	mov	eax, DWORD PTR [ecx]
; Line 70
	ret	0
?GetName@vtMaterialDescriptor@@QBEABVvtString@@XZ ENDP	; vtMaterialDescriptor::GetName
_TEXT	ENDS
PUBLIC	?GetMatType@vtMaterialDescriptor@@QBEHXZ	; vtMaterialDescriptor::GetMatType
; Function compile flags: /Ogtp
;	COMDAT ?GetMatType@vtMaterialDescriptor@@QBEHXZ
_TEXT	SEGMENT
?GetMatType@vtMaterialDescriptor@@QBEHXZ PROC		; vtMaterialDescriptor::GetMatType, COMDAT
; _this$ = ecx
; Line 85
	mov	eax, DWORD PTR [ecx+4]
; Line 86
	ret	0
?GetMatType@vtMaterialDescriptor@@QBEHXZ ENDP		; vtMaterialDescriptor::GetMatType
_TEXT	ENDS
PUBLIC	?SetMaterialIndex@vtMaterialDescriptor@@QAEXH@Z	; vtMaterialDescriptor::SetMaterialIndex
; Function compile flags: /Ogtp
;	COMDAT ?SetMaterialIndex@vtMaterialDescriptor@@QAEXH@Z
_TEXT	SEGMENT
_Index$ = 8						; size = 4
?SetMaterialIndex@vtMaterialDescriptor@@QAEXH@Z PROC	; vtMaterialDescriptor::SetMaterialIndex, COMDAT
; _this$ = ecx
; Line 97
	push	ebp
	mov	ebp, esp
; Line 98
	mov	eax, DWORD PTR _Index$[ebp]
	mov	DWORD PTR [ecx+36], eax
; Line 99
	pop	ebp
	ret	4
?SetMaterialIndex@vtMaterialDescriptor@@QAEXH@Z ENDP	; vtMaterialDescriptor::SetMaterialIndex
_TEXT	ENDS
PUBLIC	?GetMaterialIndex@vtMaterialDescriptor@@QBE?BHXZ ; vtMaterialDescriptor::GetMaterialIndex
; Function compile flags: /Ogtp
;	COMDAT ?GetMaterialIndex@vtMaterialDescriptor@@QBE?BHXZ
_TEXT	SEGMENT
?GetMaterialIndex@vtMaterialDescriptor@@QBE?BHXZ PROC	; vtMaterialDescriptor::GetMaterialIndex, COMDAT
; _this$ = ecx
; Line 102
	mov	eax, DWORD PTR [ecx+36]
; Line 103
	ret	0
?GetMaterialIndex@vtMaterialDescriptor@@QBE?BHXZ ENDP	; vtMaterialDescriptor::GetMaterialIndex
_TEXT	ENDS
PUBLIC	?GetColorable@vtMaterialDescriptor@@QBE?BW4vtMaterialColorEnum@@XZ ; vtMaterialDescriptor::GetColorable
; Function compile flags: /Ogtp
;	COMDAT ?GetColorable@vtMaterialDescriptor@@QBE?BW4vtMaterialColorEnum@@XZ
_TEXT	SEGMENT
?GetColorable@vtMaterialDescriptor@@QBE?BW4vtMaterialColorEnum@@XZ PROC ; vtMaterialDescriptor::GetColorable, COMDAT
; _this$ = ecx
; Line 110
	mov	eax, DWORD PTR [ecx+8]
; Line 111
	ret	0
?GetColorable@vtMaterialDescriptor@@QBE?BW4vtMaterialColorEnum@@XZ ENDP ; vtMaterialDescriptor::GetColorable
_TEXT	ENDS
PUBLIC	?GetSourceName@vtMaterialDescriptor@@QBEABVvtString@@XZ ; vtMaterialDescriptor::GetSourceName
; Function compile flags: /Ogtp
;	COMDAT ?GetSourceName@vtMaterialDescriptor@@QBEABVvtString@@XZ
_TEXT	SEGMENT
?GetSourceName@vtMaterialDescriptor@@QBEABVvtString@@XZ PROC ; vtMaterialDescriptor::GetSourceName, COMDAT
; _this$ = ecx
; Line 118
	lea	eax, DWORD PTR [ecx+12]
; Line 119
	ret	0
?GetSourceName@vtMaterialDescriptor@@QBEABVvtString@@XZ ENDP ; vtMaterialDescriptor::GetSourceName
_TEXT	ENDS
PUBLIC	?GetRGB@vtMaterialDescriptor@@QBE?BVRGBi@@XZ	; vtMaterialDescriptor::GetRGB
; Function compile flags: /Ogtp
;	COMDAT ?GetRGB@vtMaterialDescriptor@@QBE?BVRGBi@@XZ
_TEXT	SEGMENT
___$ReturnUdt$ = 8					; size = 4
?GetRGB@vtMaterialDescriptor@@QBE?BVRGBi@@XZ PROC	; vtMaterialDescriptor::GetRGB, COMDAT
; _this$ = ecx
; Line 125
	push	ebp
	mov	ebp, esp
; Line 126
	mov	edx, DWORD PTR [ecx+24]
	mov	eax, DWORD PTR ___$ReturnUdt$[ebp]
	mov	cx, WORD PTR [ecx+28]
	mov	DWORD PTR [eax], edx
	mov	WORD PTR [eax+4], cx
; Line 127
	pop	ebp
	ret	4
?GetRGB@vtMaterialDescriptor@@QBE?BVRGBi@@XZ ENDP	; vtMaterialDescriptor::GetRGB
_TEXT	ENDS
PUBLIC	?GetTwoSided@vtMaterialDescriptor@@QAE?B_NXZ	; vtMaterialDescriptor::GetTwoSided
; Function compile flags: /Ogtp
;	COMDAT ?GetTwoSided@vtMaterialDescriptor@@QAE?B_NXZ
_TEXT	SEGMENT
?GetTwoSided@vtMaterialDescriptor@@QAE?B_NXZ PROC	; vtMaterialDescriptor::GetTwoSided, COMDAT
; _this$ = ecx
; Line 134
	mov	al, BYTE PTR [ecx+30]
; Line 135
	ret	0
?GetTwoSided@vtMaterialDescriptor@@QAE?B_NXZ ENDP	; vtMaterialDescriptor::GetTwoSided
_TEXT	ENDS
PUBLIC	?GetAmbient@vtMaterialDescriptor@@QAE?B_NXZ	; vtMaterialDescriptor::GetAmbient
; Function compile flags: /Ogtp
;	COMDAT ?GetAmbient@vtMaterialDescriptor@@QAE?B_NXZ
_TEXT	SEGMENT
?GetAmbient@vtMaterialDescriptor@@QAE?B_NXZ PROC	; vtMaterialDescriptor::GetAmbient, COMDAT
; _this$ = ecx
; Line 142
	mov	al, BYTE PTR [ecx+31]
; Line 143
	ret	0
?GetAmbient@vtMaterialDescriptor@@QAE?B_NXZ ENDP	; vtMaterialDescriptor::GetAmbient
_TEXT	ENDS
PUBLIC	?GetBlending@vtMaterialDescriptor@@QAE?B_NXZ	; vtMaterialDescriptor::GetBlending
; Function compile flags: /Ogtp
;	COMDAT ?GetBlending@vtMaterialDescriptor@@QAE?B_NXZ
_TEXT	SEGMENT
?GetBlending@vtMaterialDescriptor@@QAE?B_NXZ PROC	; vtMaterialDescriptor::GetBlending, COMDAT
; _this$ = ecx
; Line 150
	mov	al, BYTE PTR [ecx+32]
; Line 151
	ret	0
?GetBlending@vtMaterialDescriptor@@QAE?B_NXZ ENDP	; vtMaterialDescriptor::GetBlending
_TEXT	ENDS
PUBLIC	?GetType@vtStructure@@QAE?AW4vtStructureType@@XZ ; vtStructure::GetType
; Function compile flags: /Ogtp
;	COMDAT ?GetType@vtStructure@@QAE?AW4vtStructureType@@XZ
_TEXT	SEGMENT
?GetType@vtStructure@@QAE?AW4vtStructureType@@XZ PROC	; vtStructure::GetType, COMDAT
; _this$ = ecx
; Line 236
	mov	eax, DWORD PTR [ecx+24]
	ret	0
?GetType@vtStructure@@QAE?AW4vtStructureType@@XZ ENDP	; vtStructure::GetType
_TEXT	ENDS
PUBLIC	?SetElevationOffset@vtStructure@@QAEXM@Z	; vtStructure::SetElevationOffset
; Function compile flags: /Ogtp
;	COMDAT ?SetElevationOffset@vtStructure@@QAEXM@Z
_TEXT	SEGMENT
_fOffset$ = 8						; size = 4
?SetElevationOffset@vtStructure@@QAEXM@Z PROC		; vtStructure::SetElevationOffset, COMDAT
; _this$ = ecx
; Line 238
	push	ebp
	mov	ebp, esp
	fld	DWORD PTR _fOffset$[ebp]
	fstp	DWORD PTR [ecx+28]
	pop	ebp
	ret	4
?SetElevationOffset@vtStructure@@QAEXM@Z ENDP		; vtStructure::SetElevationOffset
_TEXT	ENDS
PUBLIC	?GetElevationOffset@vtStructure@@QBEMXZ		; vtStructure::GetElevationOffset
; Function compile flags: /Ogtp
;	COMDAT ?GetElevationOffset@vtStructure@@QBEMXZ
_TEXT	SEGMENT
?GetElevationOffset@vtStructure@@QBEMXZ PROC		; vtStructure::GetElevationOffset, COMDAT
; _this$ = ecx
; Line 239
	fld	DWORD PTR [ecx+28]
	ret	0
?GetElevationOffset@vtStructure@@QBEMXZ ENDP		; vtStructure::GetElevationOffset
_TEXT	ENDS
PUBLIC	?GetBuilding@vtStructure@@QAEPAVvtBuilding@@XZ	; vtStructure::GetBuilding
; Function compile flags: /Ogtp
;	COMDAT ?GetBuilding@vtStructure@@QAEPAVvtBuilding@@XZ
_TEXT	SEGMENT
?GetBuilding@vtStructure@@QAEPAVvtBuilding@@XZ PROC	; vtStructure::GetBuilding, COMDAT
; _this$ = ecx
; Line 243
	mov	eax, DWORD PTR [ecx+24]
	neg	eax
	sbb	eax, eax
	not	eax
	and	eax, ecx
	ret	0
?GetBuilding@vtStructure@@QAEPAVvtBuilding@@XZ ENDP	; vtStructure::GetBuilding
_TEXT	ENDS
PUBLIC	?GetInstance@vtStructure@@QAEPAVvtStructInstance@@XZ ; vtStructure::GetInstance
; Function compile flags: /Ogtp
;	COMDAT ?GetInstance@vtStructure@@QAEPAVvtStructInstance@@XZ
_TEXT	SEGMENT
?GetInstance@vtStructure@@QAEPAVvtStructInstance@@XZ PROC ; vtStructure::GetInstance, COMDAT
; _this$ = ecx
; Line 245
	xor	eax, eax
	cmp	DWORD PTR [ecx+24], 2
	setne	al
	dec	eax
	and	eax, ecx
	ret	0
?GetInstance@vtStructure@@QAEPAVvtStructInstance@@XZ ENDP ; vtStructure::GetInstance
_TEXT	ENDS
PUBLIC	?Offset@vtStructInstance@@QAEXABVDPoint2@@@Z	; vtStructInstance::Offset
; Function compile flags: /Ogtp
;	COMDAT ?Offset@vtStructInstance@@QAEXABVDPoint2@@@Z
_TEXT	SEGMENT
_delta$ = 8						; size = 4
?Offset@vtStructInstance@@QAEXABVDPoint2@@@Z PROC	; vtStructInstance::Offset, COMDAT
; _this$ = ecx
; Line 300
	push	ebp
	mov	ebp, esp
	fld	QWORD PTR [ecx+40]
	mov	eax, DWORD PTR _delta$[ebp]
	fadd	QWORD PTR [eax]
	fstp	QWORD PTR [ecx+40]
	fld	QWORD PTR [eax+8]
	fadd	QWORD PTR [ecx+48]
	fstp	QWORD PTR [ecx+48]
	pop	ebp
	ret	4
?Offset@vtStructInstance@@QAEXABVDPoint2@@@Z ENDP	; vtStructInstance::Offset
_TEXT	ENDS
PUBLIC	?getSpatialReference@OGRGeometry@@QBEPAVOGRSpatialReference@@XZ ; OGRGeometry::getSpatialReference
; Function compile flags: /Ogtp
;	COMDAT ?getSpatialReference@OGRGeometry@@QBEPAVOGRSpatialReference@@XZ
_TEXT	SEGMENT
?getSpatialReference@OGRGeometry@@QBEPAVOGRSpatialReference@@XZ PROC ; OGRGeometry::getSpatialReference, COMDAT
; _this$ = ecx
; File c:\osgeo4w\include\ogr_geometry.h
; Line 122
	mov	eax, DWORD PTR [ecx+4]
	ret	0
?getSpatialReference@OGRGeometry@@QBEPAVOGRSpatialReference@@XZ ENDP ; OGRGeometry::getSpatialReference
_TEXT	ENDS
PUBLIC	??_7OGRGeometry@@6B@				; OGRGeometry::`vftable'
PUBLIC	??0OGRGeometry@@QAE@ABV0@@Z			; OGRGeometry::OGRGeometry
PUBLIC	??_R4OGRGeometry@@6B@				; OGRGeometry::`RTTI Complete Object Locator'
PUBLIC	??_R0?AVOGRGeometry@@@8				; OGRGeometry `RTTI Type Descriptor'
PUBLIC	??_R3OGRGeometry@@8				; OGRGeometry::`RTTI Class Hierarchy Descriptor'
PUBLIC	??_R2OGRGeometry@@8				; OGRGeometry::`RTTI Base Class Array'
PUBLIC	??_R1A@?0A@EA@OGRGeometry@@8			; OGRGeometry::`RTTI Base Class Descriptor at (0,-1,0,64)'
PUBLIC	??_EOGRGeometry@@UAEPAXI@Z			; OGRGeometry::`vector deleting destructor'
EXTRN	?getCoordinateDimension@OGRGeometry@@UBEHXZ:PROC ; OGRGeometry::getCoordinateDimension
EXTRN	?IsValid@OGRGeometry@@UBEHXZ:PROC		; OGRGeometry::IsValid
EXTRN	?IsSimple@OGRGeometry@@UBEHXZ:PROC		; OGRGeometry::IsSimple
EXTRN	?IsRing@OGRGeometry@@UBEHXZ:PROC		; OGRGeometry::IsRing
EXTRN	?dumpReadable@OGRGeometry@@UBEXPAU_iobuf@@PBDPAPAD@Z:PROC ; OGRGeometry::dumpReadable
EXTRN	?exportToGML@OGRGeometry@@UBEPADPBQBD@Z:PROC	; OGRGeometry::exportToGML
EXTRN	?exportToKML@OGRGeometry@@UBEPADXZ:PROC		; OGRGeometry::exportToKML
EXTRN	?exportToJson@OGRGeometry@@UBEPADXZ:PROC	; OGRGeometry::exportToJson
EXTRN	?exportToGEOS@OGRGeometry@@UBEPAUGEOSGeom_t@@XZ:PROC ; OGRGeometry::exportToGEOS
EXTRN	?closeRings@OGRGeometry@@UAEXXZ:PROC		; OGRGeometry::closeRings
EXTRN	?setCoordinateDimension@OGRGeometry@@UAEXH@Z:PROC ; OGRGeometry::setCoordinateDimension
EXTRN	?segmentize@OGRGeometry@@UAEXN@Z:PROC		; OGRGeometry::segmentize
EXTRN	?Intersects@OGRGeometry@@UBEHPAV1@@Z:PROC	; OGRGeometry::Intersects
EXTRN	?Disjoint@OGRGeometry@@UBEHPBV1@@Z:PROC		; OGRGeometry::Disjoint
EXTRN	?Touches@OGRGeometry@@UBEHPBV1@@Z:PROC		; OGRGeometry::Touches
EXTRN	?Crosses@OGRGeometry@@UBEHPBV1@@Z:PROC		; OGRGeometry::Crosses
EXTRN	?Within@OGRGeometry@@UBEHPBV1@@Z:PROC		; OGRGeometry::Within
EXTRN	?Contains@OGRGeometry@@UBEHPBV1@@Z:PROC		; OGRGeometry::Contains
EXTRN	?Overlaps@OGRGeometry@@UBEHPBV1@@Z:PROC		; OGRGeometry::Overlaps
EXTRN	?Boundary@OGRGeometry@@UBEPAV1@XZ:PROC		; OGRGeometry::Boundary
EXTRN	?Distance@OGRGeometry@@UBENPBV1@@Z:PROC		; OGRGeometry::Distance
EXTRN	?ConvexHull@OGRGeometry@@UBEPAV1@XZ:PROC	; OGRGeometry::ConvexHull
EXTRN	?Buffer@OGRGeometry@@UBEPAV1@NH@Z:PROC		; OGRGeometry::Buffer
EXTRN	?Intersection@OGRGeometry@@UBEPAV1@PBV1@@Z:PROC	; OGRGeometry::Intersection
EXTRN	?Union@OGRGeometry@@UBEPAV1@PBV1@@Z:PROC	; OGRGeometry::Union
EXTRN	?UnionCascaded@OGRGeometry@@UBEPAV1@XZ:PROC	; OGRGeometry::UnionCascaded
EXTRN	?Difference@OGRGeometry@@UBEPAV1@PBV1@@Z:PROC	; OGRGeometry::Difference
EXTRN	?SymDifference@OGRGeometry@@UBEPAV1@PBV1@@Z:PROC ; OGRGeometry::SymDifference
EXTRN	?Centroid@OGRGeometry@@UBEHPAVOGRPoint@@@Z:PROC	; OGRGeometry::Centroid
EXTRN	?Simplify@OGRGeometry@@UBEPAV1@N@Z:PROC		; OGRGeometry::Simplify
EXTRN	?Polygonize@OGRGeometry@@UBEPAV1@XZ:PROC	; OGRGeometry::Polygonize
EXTRN	?SymmetricDifference@OGRGeometry@@UBEPAV1@PBV1@@Z:PROC ; OGRGeometry::SymmetricDifference
EXTRN	?getBoundary@OGRGeometry@@UBEPAV1@XZ:PROC	; OGRGeometry::getBoundary
EXTRN	?swapXY@OGRGeometry@@UAEXXZ:PROC		; OGRGeometry::swapXY
;	COMDAT ??_R1A@?0A@EA@OGRGeometry@@8
rdata$r	SEGMENT
??_R1A@?0A@EA@OGRGeometry@@8 DD FLAT:??_R0?AVOGRGeometry@@@8 ; OGRGeometry::`RTTI Base Class Descriptor at (0,-1,0,64)'
	DD	00H
	DD	00H
	DD	0ffffffffH
	DD	00H
	DD	040H
	DD	FLAT:??_R3OGRGeometry@@8
rdata$r	ENDS
;	COMDAT ??_R2OGRGeometry@@8
rdata$r	SEGMENT
??_R2OGRGeometry@@8 DD FLAT:??_R1A@?0A@EA@OGRGeometry@@8 ; OGRGeometry::`RTTI Base Class Array'
rdata$r	ENDS
;	COMDAT ??_R3OGRGeometry@@8
rdata$r	SEGMENT
??_R3OGRGeometry@@8 DD 00H				; OGRGeometry::`RTTI Class Hierarchy Descriptor'
	DD	00H
	DD	01H
	DD	FLAT:??_R2OGRGeometry@@8
rdata$r	ENDS
;	COMDAT ??_R0?AVOGRGeometry@@@8
_DATA	SEGMENT
??_R0?AVOGRGeometry@@@8 DD FLAT:??_7type_info@@6B@	; OGRGeometry `RTTI Type Descriptor'
	DD	00H
	DB	'.?AVOGRGeometry@@', 00H
_DATA	ENDS
;	COMDAT ??_R4OGRGeometry@@6B@
rdata$r	SEGMENT
??_R4OGRGeometry@@6B@ DD 00H				; OGRGeometry::`RTTI Complete Object Locator'
	DD	00H
	DD	00H
	DD	FLAT:??_R0?AVOGRGeometry@@@8
	DD	FLAT:??_R3OGRGeometry@@8
rdata$r	ENDS
;	COMDAT ??_7OGRGeometry@@6B@
CONST	SEGMENT
??_7OGRGeometry@@6B@ DD FLAT:??_R4OGRGeometry@@6B@	; OGRGeometry::`vftable'
	DD	FLAT:??_EOGRGeometry@@UAEPAXI@Z
	DD	FLAT:__purecall
	DD	FLAT:?getCoordinateDimension@OGRGeometry@@UBEHXZ
	DD	FLAT:__purecall
	DD	FLAT:?IsValid@OGRGeometry@@UBEHXZ
	DD	FLAT:?IsSimple@OGRGeometry@@UBEHXZ
	DD	FLAT:?IsRing@OGRGeometry@@UBEHXZ
	DD	FLAT:__purecall
	DD	FLAT:__purecall
	DD	FLAT:__purecall
	DD	FLAT:__purecall
	DD	FLAT:__purecall
	DD	FLAT:__purecall
	DD	FLAT:__purecall
	DD	FLAT:__purecall
	DD	FLAT:__purecall
	DD	FLAT:__purecall
	DD	FLAT:__purecall
	DD	FLAT:?dumpReadable@OGRGeometry@@UBEXPAU_iobuf@@PBDPAPAD@Z
	DD	FLAT:__purecall
	DD	FLAT:?exportToGML@OGRGeometry@@UBEPADPBQBD@Z
	DD	FLAT:?exportToKML@OGRGeometry@@UBEPADXZ
	DD	FLAT:?exportToJson@OGRGeometry@@UBEPADXZ
	DD	FLAT:?exportToGEOS@OGRGeometry@@UBEPAUGEOSGeom_t@@XZ
	DD	FLAT:?closeRings@OGRGeometry@@UAEXXZ
	DD	FLAT:?setCoordinateDimension@OGRGeometry@@UAEXH@Z
	DD	FLAT:__purecall
	DD	FLAT:?segmentize@OGRGeometry@@UAEXN@Z
	DD	FLAT:?Intersects@OGRGeometry@@UBEHPAV1@@Z
	DD	FLAT:__purecall
	DD	FLAT:?Disjoint@OGRGeometry@@UBEHPBV1@@Z
	DD	FLAT:?Touches@OGRGeometry@@UBEHPBV1@@Z
	DD	FLAT:?Crosses@OGRGeometry@@UBEHPBV1@@Z
	DD	FLAT:?Within@OGRGeometry@@UBEHPBV1@@Z
	DD	FLAT:?Contains@OGRGeometry@@UBEHPBV1@@Z
	DD	FLAT:?Overlaps@OGRGeometry@@UBEHPBV1@@Z
	DD	FLAT:?Boundary@OGRGeometry@@UBEPAV1@XZ
	DD	FLAT:?Distance@OGRGeometry@@UBENPBV1@@Z
	DD	FLAT:?ConvexHull@OGRGeometry@@UBEPAV1@XZ
	DD	FLAT:?Buffer@OGRGeometry@@UBEPAV1@NH@Z
	DD	FLAT:?Intersection@OGRGeometry@@UBEPAV1@PBV1@@Z
	DD	FLAT:?Union@OGRGeometry@@UBEPAV1@PBV1@@Z
	DD	FLAT:?UnionCascaded@OGRGeometry@@UBEPAV1@XZ
	DD	FLAT:?Difference@OGRGeometry@@UBEPAV1@PBV1@@Z
	DD	FLAT:?SymDifference@OGRGeometry@@UBEPAV1@PBV1@@Z
	DD	FLAT:?Centroid@OGRGeometry@@UBEHPAVOGRPoint@@@Z
	DD	FLAT:?Simplify@OGRGeometry@@UBEPAV1@N@Z
	DD	FLAT:?Polygonize@OGRGeometry@@UBEPAV1@XZ
	DD	FLAT:?SymmetricDifference@OGRGeometry@@UBEPAV1@PBV1@@Z
	DD	FLAT:?getBoundary@OGRGeometry@@UBEPAV1@XZ
	DD	FLAT:?swapXY@OGRGeometry@@UAEXXZ
; Function compile flags: /Ogtp
CONST	ENDS
;	COMDAT ??0OGRGeometry@@QAE@ABV0@@Z
_TEXT	SEGMENT
___that$ = 8						; size = 4
??0OGRGeometry@@QAE@ABV0@@Z PROC			; OGRGeometry::OGRGeometry, COMDAT
; _this$ = ecx
	push	ebp
	mov	ebp, esp
	mov	eax, ecx
	mov	ecx, DWORD PTR ___that$[ebp]
	mov	DWORD PTR [eax], OFFSET ??_7OGRGeometry@@6B@
	mov	edx, DWORD PTR [ecx+4]
	mov	DWORD PTR [eax+4], edx
	mov	ecx, DWORD PTR [ecx+8]
	mov	DWORD PTR [eax+8], ecx
	pop	ebp
	ret	4
??0OGRGeometry@@QAE@ABV0@@Z ENDP			; OGRGeometry::OGRGeometry
_TEXT	ENDS
PUBLIC	??4OGRGeometry@@QAEAAV0@ABV0@@Z			; OGRGeometry::operator=
; Function compile flags: /Ogtp
;	COMDAT ??4OGRGeometry@@QAEAAV0@ABV0@@Z
_TEXT	SEGMENT
___that$ = 8						; size = 4
??4OGRGeometry@@QAEAAV0@ABV0@@Z PROC			; OGRGeometry::operator=, COMDAT
; _this$ = ecx
	push	ebp
	mov	ebp, esp
	mov	eax, ecx
	mov	ecx, DWORD PTR ___that$[ebp]
	mov	edx, DWORD PTR [ecx+4]
	mov	DWORD PTR [eax+4], edx
	mov	ecx, DWORD PTR [ecx+8]
	mov	DWORD PTR [eax+8], ecx
	pop	ebp
	ret	4
??4OGRGeometry@@QAEAAV0@ABV0@@Z ENDP			; OGRGeometry::operator=
_TEXT	ENDS
PUBLIC	??_GOGRGeometry@@UAEPAXI@Z			; OGRGeometry::`scalar deleting destructor'
EXTRN	??1OGRGeometry@@UAE@XZ:PROC			; OGRGeometry::~OGRGeometry
; Function compile flags: /Ogtp
;	COMDAT ??_GOGRGeometry@@UAEPAXI@Z
_TEXT	SEGMENT
___flags$ = 8						; size = 4
??_GOGRGeometry@@UAEPAXI@Z PROC				; OGRGeometry::`scalar deleting destructor', COMDAT
; _this$ = ecx
	push	ebp
	mov	ebp, esp
	push	esi
	mov	esi, ecx
	call	??1OGRGeometry@@UAE@XZ			; OGRGeometry::~OGRGeometry
	test	BYTE PTR ___flags$[ebp], 1
	je	SHORT $LN4@scalar@3
	push	esi
	call	??3@YAXPAX@Z				; operator delete
	add	esp, 4
$LN4@scalar@3:
	mov	eax, esi
	pop	esi
	pop	ebp
	ret	4
??_GOGRGeometry@@UAEPAXI@Z ENDP				; OGRGeometry::`scalar deleting destructor'
; Function compile flags: /Ogtp
_TEXT	ENDS
;	COMDAT ??_EOGRGeometry@@UAEPAXI@Z
_TEXT	SEGMENT
___flags$ = 8						; size = 4
??_EOGRGeometry@@UAEPAXI@Z PROC				; OGRGeometry::`vector deleting destructor', COMDAT
; _this$ = ecx
	push	ebp
	mov	ebp, esp
	push	ebx
	mov	bl, BYTE PTR ___flags$[ebp]
	push	esi
	mov	esi, ecx
	test	bl, 2
	je	SHORT $LN3@vector@3
	mov	eax, DWORD PTR [esi-4]
	push	edi
	push	OFFSET ??1OGRGeometry@@UAE@XZ		; OGRGeometry::~OGRGeometry
	lea	edi, DWORD PTR [esi-4]
	push	eax
	push	12					; 0000000cH
	push	esi
	call	??_M@YGXPAXIHP6EX0@Z@Z
	test	bl, 1
	je	SHORT $LN2@vector@3
	push	edi
	call	??_V@YAXPAX@Z				; operator delete[]
	add	esp, 4
$LN2@vector@3:
	mov	eax, edi
	pop	edi
	pop	esi
	pop	ebx
	pop	ebp
	ret	4
$LN3@vector@3:
	call	??1OGRGeometry@@UAE@XZ			; OGRGeometry::~OGRGeometry
	test	bl, 1
	je	SHORT $LN1@vector@3
	push	esi
	call	??3@YAXPAX@Z				; operator delete
	add	esp, 4
$LN1@vector@3:
	mov	eax, esi
	pop	esi
	pop	ebx
	pop	ebp
	ret	4
??_EOGRGeometry@@UAEPAXI@Z ENDP				; OGRGeometry::`vector deleting destructor'
_TEXT	ENDS
PUBLIC	?getX@OGRPoint@@QBENXZ				; OGRPoint::getX
; Function compile flags: /Ogtp
;	COMDAT ?getX@OGRPoint@@QBENXZ
_TEXT	SEGMENT
?getX@OGRPoint@@QBENXZ PROC				; OGRPoint::getX, COMDAT
; _this$ = ecx
; Line 205
	fld	QWORD PTR [ecx+16]
	ret	0
?getX@OGRPoint@@QBENXZ ENDP				; OGRPoint::getX
_TEXT	ENDS
PUBLIC	?getY@OGRPoint@@QBENXZ				; OGRPoint::getY
; Function compile flags: /Ogtp
;	COMDAT ?getY@OGRPoint@@QBENXZ
_TEXT	SEGMENT
?getY@OGRPoint@@QBENXZ PROC				; OGRPoint::getY, COMDAT
; _this$ = ecx
; Line 206
	fld	QWORD PTR [ecx+24]
	ret	0
?getY@OGRPoint@@QBENXZ ENDP				; OGRPoint::getY
_TEXT	ENDS
PUBLIC	?getZ@OGRPoint@@QBENXZ				; OGRPoint::getZ
; Function compile flags: /Ogtp
;	COMDAT ?getZ@OGRPoint@@QBENXZ
_TEXT	SEGMENT
?getZ@OGRPoint@@QBENXZ PROC				; OGRPoint::getZ, COMDAT
; _this$ = ecx
; Line 207
	fld	QWORD PTR [ecx+32]
	ret	0
?getZ@OGRPoint@@QBENXZ ENDP				; OGRPoint::getZ
_TEXT	ENDS
PUBLIC	?setX@OGRPoint@@QAEXN@Z				; OGRPoint::setX
; Function compile flags: /Ogtp
;	COMDAT ?setX@OGRPoint@@QAEXN@Z
_TEXT	SEGMENT
_xIn$ = 8						; size = 8
?setX@OGRPoint@@QAEXN@Z PROC				; OGRPoint::setX, COMDAT
; _this$ = ecx
; Line 211
	push	ebp
	mov	ebp, esp
	cmp	DWORD PTR [ecx+8], 0
	fld	QWORD PTR _xIn$[ebp]
	fstp	QWORD PTR [ecx+16]
	jne	SHORT $LN1@setX
	mov	DWORD PTR [ecx+8], 2
$LN1@setX:
	pop	ebp
	ret	8
?setX@OGRPoint@@QAEXN@Z ENDP				; OGRPoint::setX
_TEXT	ENDS
PUBLIC	?setY@OGRPoint@@QAEXN@Z				; OGRPoint::setY
; Function compile flags: /Ogtp
;	COMDAT ?setY@OGRPoint@@QAEXN@Z
_TEXT	SEGMENT
_yIn$ = 8						; size = 8
?setY@OGRPoint@@QAEXN@Z PROC				; OGRPoint::setY, COMDAT
; _this$ = ecx
; Line 212
	push	ebp
	mov	ebp, esp
	cmp	DWORD PTR [ecx+8], 0
	fld	QWORD PTR _yIn$[ebp]
	fstp	QWORD PTR [ecx+24]
	jne	SHORT $LN1@setY
	mov	DWORD PTR [ecx+8], 2
$LN1@setY:
	pop	ebp
	ret	8
?setY@OGRPoint@@QAEXN@Z ENDP				; OGRPoint::setY
_TEXT	ENDS
PUBLIC	?setZ@OGRPoint@@QAEXN@Z				; OGRPoint::setZ
; Function compile flags: /Ogtp
;	COMDAT ?setZ@OGRPoint@@QAEXN@Z
_TEXT	SEGMENT
_zIn$ = 8						; size = 8
?setZ@OGRPoint@@QAEXN@Z PROC				; OGRPoint::setZ, COMDAT
; _this$ = ecx
; Line 213
	push	ebp
	mov	ebp, esp
	fld	QWORD PTR _zIn$[ebp]
	mov	DWORD PTR [ecx+8], 3
	fstp	QWORD PTR [ecx+32]
	pop	ebp
	ret	8
?setZ@OGRPoint@@QAEXN@Z ENDP				; OGRPoint::setZ
_TEXT	ENDS
PUBLIC	??_7OGRPoint@@6B@				; OGRPoint::`vftable'
PUBLIC	??0OGRPoint@@QAE@ABV0@@Z			; OGRPoint::OGRPoint
PUBLIC	??_R4OGRPoint@@6B@				; OGRPoint::`RTTI Complete Object Locator'
PUBLIC	??_R0?AVOGRPoint@@@8				; OGRPoint `RTTI Type Descriptor'
PUBLIC	??_R3OGRPoint@@8				; OGRPoint::`RTTI Class Hierarchy Descriptor'
PUBLIC	??_R2OGRPoint@@8				; OGRPoint::`RTTI Base Class Array'
PUBLIC	??_R1A@?0A@EA@OGRPoint@@8			; OGRPoint::`RTTI Base Class Descriptor at (0,-1,0,64)'
PUBLIC	??_EOGRPoint@@UAEPAXI@Z				; OGRPoint::`vector deleting destructor'
EXTRN	?getDimension@OGRPoint@@UBEHXZ:PROC		; OGRPoint::getDimension
EXTRN	?IsEmpty@OGRPoint@@UBEHXZ:PROC			; OGRPoint::IsEmpty
EXTRN	?empty@OGRPoint@@UAEXXZ:PROC			; OGRPoint::empty
EXTRN	?clone@OGRPoint@@UBEPAVOGRGeometry@@XZ:PROC	; OGRPoint::clone
EXTRN	?getEnvelope@OGRPoint@@UBEXPAVOGREnvelope3D@@@Z:PROC ; OGRPoint::getEnvelope
EXTRN	?getEnvelope@OGRPoint@@UBEXPAVOGREnvelope@@@Z:PROC ; OGRPoint::getEnvelope
EXTRN	?WkbSize@OGRPoint@@UBEHXZ:PROC			; OGRPoint::WkbSize
EXTRN	?importFromWkb@OGRPoint@@UAEHPAEH@Z:PROC	; OGRPoint::importFromWkb
EXTRN	?exportToWkb@OGRPoint@@UBEHW4OGRwkbByteOrder@@PAE@Z:PROC ; OGRPoint::exportToWkb
EXTRN	?importFromWkt@OGRPoint@@UAEHPAPAD@Z:PROC	; OGRPoint::importFromWkt
EXTRN	?exportToWkt@OGRPoint@@UBEHPAPAD@Z:PROC		; OGRPoint::exportToWkt
EXTRN	?getGeometryType@OGRPoint@@UBE?AW4OGRwkbGeometryType@@XZ:PROC ; OGRPoint::getGeometryType
EXTRN	?getGeometryName@OGRPoint@@UBEPBDXZ:PROC	; OGRPoint::getGeometryName
EXTRN	?flattenTo2D@OGRPoint@@UAEXXZ:PROC		; OGRPoint::flattenTo2D
EXTRN	?setCoordinateDimension@OGRPoint@@UAEXH@Z:PROC	; OGRPoint::setCoordinateDimension
EXTRN	?transform@OGRPoint@@UAEHPAVOGRCoordinateTransformation@@@Z:PROC ; OGRPoint::transform
EXTRN	?Equals@OGRPoint@@UBEHPAVOGRGeometry@@@Z:PROC	; OGRPoint::Equals
EXTRN	?swapXY@OGRPoint@@UAEXXZ:PROC			; OGRPoint::swapXY
;	COMDAT ??_R1A@?0A@EA@OGRPoint@@8
rdata$r	SEGMENT
??_R1A@?0A@EA@OGRPoint@@8 DD FLAT:??_R0?AVOGRPoint@@@8	; OGRPoint::`RTTI Base Class Descriptor at (0,-1,0,64)'
	DD	01H
	DD	00H
	DD	0ffffffffH
	DD	00H
	DD	040H
	DD	FLAT:??_R3OGRPoint@@8
rdata$r	ENDS
;	COMDAT ??_R2OGRPoint@@8
rdata$r	SEGMENT
??_R2OGRPoint@@8 DD FLAT:??_R1A@?0A@EA@OGRPoint@@8	; OGRPoint::`RTTI Base Class Array'
	DD	FLAT:??_R1A@?0A@EA@OGRGeometry@@8
rdata$r	ENDS
;	COMDAT ??_R3OGRPoint@@8
rdata$r	SEGMENT
??_R3OGRPoint@@8 DD 00H					; OGRPoint::`RTTI Class Hierarchy Descriptor'
	DD	00H
	DD	02H
	DD	FLAT:??_R2OGRPoint@@8
rdata$r	ENDS
;	COMDAT ??_R0?AVOGRPoint@@@8
_DATA	SEGMENT
??_R0?AVOGRPoint@@@8 DD FLAT:??_7type_info@@6B@		; OGRPoint `RTTI Type Descriptor'
	DD	00H
	DB	'.?AVOGRPoint@@', 00H
_DATA	ENDS
;	COMDAT ??_R4OGRPoint@@6B@
rdata$r	SEGMENT
??_R4OGRPoint@@6B@ DD 00H				; OGRPoint::`RTTI Complete Object Locator'
	DD	00H
	DD	00H
	DD	FLAT:??_R0?AVOGRPoint@@@8
	DD	FLAT:??_R3OGRPoint@@8
rdata$r	ENDS
;	COMDAT ??_7OGRPoint@@6B@
CONST	SEGMENT
??_7OGRPoint@@6B@ DD FLAT:??_R4OGRPoint@@6B@		; OGRPoint::`vftable'
	DD	FLAT:??_EOGRPoint@@UAEPAXI@Z
	DD	FLAT:?getDimension@OGRPoint@@UBEHXZ
	DD	FLAT:?getCoordinateDimension@OGRGeometry@@UBEHXZ
	DD	FLAT:?IsEmpty@OGRPoint@@UBEHXZ
	DD	FLAT:?IsValid@OGRGeometry@@UBEHXZ
	DD	FLAT:?IsSimple@OGRGeometry@@UBEHXZ
	DD	FLAT:?IsRing@OGRGeometry@@UBEHXZ
	DD	FLAT:?empty@OGRPoint@@UAEXXZ
	DD	FLAT:?clone@OGRPoint@@UBEPAVOGRGeometry@@XZ
	DD	FLAT:?getEnvelope@OGRPoint@@UBEXPAVOGREnvelope3D@@@Z
	DD	FLAT:?getEnvelope@OGRPoint@@UBEXPAVOGREnvelope@@@Z
	DD	FLAT:?WkbSize@OGRPoint@@UBEHXZ
	DD	FLAT:?importFromWkb@OGRPoint@@UAEHPAEH@Z
	DD	FLAT:?exportToWkb@OGRPoint@@UBEHW4OGRwkbByteOrder@@PAE@Z
	DD	FLAT:?importFromWkt@OGRPoint@@UAEHPAPAD@Z
	DD	FLAT:?exportToWkt@OGRPoint@@UBEHPAPAD@Z
	DD	FLAT:?getGeometryType@OGRPoint@@UBE?AW4OGRwkbGeometryType@@XZ
	DD	FLAT:?getGeometryName@OGRPoint@@UBEPBDXZ
	DD	FLAT:?dumpReadable@OGRGeometry@@UBEXPAU_iobuf@@PBDPAPAD@Z
	DD	FLAT:?flattenTo2D@OGRPoint@@UAEXXZ
	DD	FLAT:?exportToGML@OGRGeometry@@UBEPADPBQBD@Z
	DD	FLAT:?exportToKML@OGRGeometry@@UBEPADXZ
	DD	FLAT:?exportToJson@OGRGeometry@@UBEPADXZ
	DD	FLAT:?exportToGEOS@OGRGeometry@@UBEPAUGEOSGeom_t@@XZ
	DD	FLAT:?closeRings@OGRGeometry@@UAEXXZ
	DD	FLAT:?setCoordinateDimension@OGRPoint@@UAEXH@Z
	DD	FLAT:?transform@OGRPoint@@UAEHPAVOGRCoordinateTransformation@@@Z
	DD	FLAT:?segmentize@OGRGeometry@@UAEXN@Z
	DD	FLAT:?Intersects@OGRGeometry@@UBEHPAV1@@Z
	DD	FLAT:?Equals@OGRPoint@@UBEHPAVOGRGeometry@@@Z
	DD	FLAT:?Disjoint@OGRGeometry@@UBEHPBV1@@Z
	DD	FLAT:?Touches@OGRGeometry@@UBEHPBV1@@Z
	DD	FLAT:?Crosses@OGRGeometry@@UBEHPBV1@@Z
	DD	FLAT:?Within@OGRGeometry@@UBEHPBV1@@Z
	DD	FLAT:?Contains@OGRGeometry@@UBEHPBV1@@Z
	DD	FLAT:?Overlaps@OGRGeometry@@UBEHPBV1@@Z
	DD	FLAT:?Boundary@OGRGeometry@@UBEPAV1@XZ
	DD	FLAT:?Distance@OGRGeometry@@UBENPBV1@@Z
	DD	FLAT:?ConvexHull@OGRGeometry@@UBEPAV1@XZ
	DD	FLAT:?Buffer@OGRGeometry@@UBEPAV1@NH@Z
	DD	FLAT:?Intersection@OGRGeometry@@UBEPAV1@PBV1@@Z
	DD	FLAT:?Union@OGRGeometry@@UBEPAV1@PBV1@@Z
	DD	FLAT:?UnionCascaded@OGRGeometry@@UBEPAV1@XZ
	DD	FLAT:?Difference@OGRGeometry@@UBEPAV1@PBV1@@Z
	DD	FLAT:?SymDifference@OGRGeometry@@UBEPAV1@PBV1@@Z
	DD	FLAT:?Centroid@OGRGeometry@@UBEHPAVOGRPoint@@@Z
	DD	FLAT:?Simplify@OGRGeometry@@UBEPAV1@N@Z
	DD	FLAT:?Polygonize@OGRGeometry@@UBEPAV1@XZ
	DD	FLAT:?SymmetricDifference@OGRGeometry@@UBEPAV1@PBV1@@Z
	DD	FLAT:?getBoundary@OGRGeometry@@UBEPAV1@XZ
	DD	FLAT:?swapXY@OGRPoint@@UAEXXZ
; Function compile flags: /Ogtp
CONST	ENDS
;	COMDAT ??0OGRPoint@@QAE@ABV0@@Z
_TEXT	SEGMENT
___that$ = 8						; size = 4
??0OGRPoint@@QAE@ABV0@@Z PROC				; OGRPoint::OGRPoint, COMDAT
; _this$ = ecx
	push	ebp
	mov	ebp, esp
	mov	eax, ecx
	mov	ecx, DWORD PTR ___that$[ebp]
	mov	DWORD PTR [eax], OFFSET ??_7OGRGeometry@@6B@
	mov	edx, DWORD PTR [ecx+4]
	mov	DWORD PTR [eax+4], edx
	mov	edx, DWORD PTR [ecx+8]
	mov	DWORD PTR [eax+8], edx
	mov	DWORD PTR [eax], OFFSET ??_7OGRPoint@@6B@
	fld	QWORD PTR [ecx+16]
	fstp	QWORD PTR [eax+16]
	fld	QWORD PTR [ecx+24]
	fstp	QWORD PTR [eax+24]
	fld	QWORD PTR [ecx+32]
	fstp	QWORD PTR [eax+32]
	pop	ebp
	ret	4
??0OGRPoint@@QAE@ABV0@@Z ENDP				; OGRPoint::OGRPoint
_TEXT	ENDS
PUBLIC	??4OGRPoint@@QAEAAV0@ABV0@@Z			; OGRPoint::operator=
; Function compile flags: /Ogtp
;	COMDAT ??4OGRPoint@@QAEAAV0@ABV0@@Z
_TEXT	SEGMENT
___that$ = 8						; size = 4
??4OGRPoint@@QAEAAV0@ABV0@@Z PROC			; OGRPoint::operator=, COMDAT
; _this$ = ecx
	push	ebp
	mov	ebp, esp
	mov	eax, ecx
	mov	ecx, DWORD PTR ___that$[ebp]
	mov	edx, DWORD PTR [ecx+4]
	mov	DWORD PTR [eax+4], edx
	mov	edx, DWORD PTR [ecx+8]
	mov	DWORD PTR [eax+8], edx
	fld	QWORD PTR [ecx+16]
	fstp	QWORD PTR [eax+16]
	fld	QWORD PTR [ecx+24]
	fstp	QWORD PTR [eax+24]
	fld	QWORD PTR [ecx+32]
	fstp	QWORD PTR [eax+32]
	pop	ebp
	ret	4
??4OGRPoint@@QAEAAV0@ABV0@@Z ENDP			; OGRPoint::operator=
_TEXT	ENDS
PUBLIC	??_GOGRPoint@@UAEPAXI@Z				; OGRPoint::`scalar deleting destructor'
EXTRN	??1OGRPoint@@UAE@XZ:PROC			; OGRPoint::~OGRPoint
; Function compile flags: /Ogtp
;	COMDAT ??_GOGRPoint@@UAEPAXI@Z
_TEXT	SEGMENT
___flags$ = 8						; size = 4
??_GOGRPoint@@UAEPAXI@Z PROC				; OGRPoint::`scalar deleting destructor', COMDAT
; _this$ = ecx
	push	ebp
	mov	ebp, esp
	push	esi
	mov	esi, ecx
	call	??1OGRPoint@@UAE@XZ			; OGRPoint::~OGRPoint
	test	BYTE PTR ___flags$[ebp], 1
	je	SHORT $LN4@scalar@4
	push	esi
	call	??3@YAXPAX@Z				; operator delete
	add	esp, 4
$LN4@scalar@4:
	mov	eax, esi
	pop	esi
	pop	ebp
	ret	4
??_GOGRPoint@@UAEPAXI@Z ENDP				; OGRPoint::`scalar deleting destructor'
; Function compile flags: /Ogtp
_TEXT	ENDS
;	COMDAT ??_EOGRPoint@@UAEPAXI@Z
_TEXT	SEGMENT
___flags$ = 8						; size = 4
??_EOGRPoint@@UAEPAXI@Z PROC				; OGRPoint::`vector deleting destructor', COMDAT
; _this$ = ecx
	push	ebp
	mov	ebp, esp
	push	ebx
	mov	bl, BYTE PTR ___flags$[ebp]
	push	esi
	mov	esi, ecx
	test	bl, 2
	je	SHORT $LN3@vector@4
	mov	eax, DWORD PTR [esi-4]
	push	edi
	push	OFFSET ??1OGRPoint@@UAE@XZ		; OGRPoint::~OGRPoint
	lea	edi, DWORD PTR [esi-4]
	push	eax
	push	40					; 00000028H
	push	esi
	call	??_M@YGXPAXIHP6EX0@Z@Z
	test	bl, 1
	je	SHORT $LN2@vector@4
	push	edi
	call	??_V@YAXPAX@Z				; operator delete[]
	add	esp, 4
$LN2@vector@4:
	mov	eax, edi
	pop	edi
	pop	esi
	pop	ebx
	pop	ebp
	ret	4
$LN3@vector@4:
	call	??1OGRPoint@@UAE@XZ			; OGRPoint::~OGRPoint
	test	bl, 1
	je	SHORT $LN1@vector@4
	push	esi
	call	??3@YAXPAX@Z				; operator delete
	add	esp, 4
$LN1@vector@4:
	mov	eax, esi
	pop	esi
	pop	ebx
	pop	ebp
	ret	4
??_EOGRPoint@@UAEPAXI@Z ENDP				; OGRPoint::`vector deleting destructor'
_TEXT	ENDS
PUBLIC	??_7OGRCurve@@6B@				; OGRCurve::`vftable'
PUBLIC	??0OGRCurve@@QAE@ABV0@@Z			; OGRCurve::OGRCurve
PUBLIC	??_R4OGRCurve@@6B@				; OGRCurve::`RTTI Complete Object Locator'
PUBLIC	??_R0?AVOGRCurve@@@8				; OGRCurve `RTTI Type Descriptor'
PUBLIC	??_R3OGRCurve@@8				; OGRCurve::`RTTI Class Hierarchy Descriptor'
PUBLIC	??_R2OGRCurve@@8				; OGRCurve::`RTTI Base Class Array'
PUBLIC	??_R1A@?0A@EA@OGRCurve@@8			; OGRCurve::`RTTI Base Class Descriptor at (0,-1,0,64)'
PUBLIC	??_EOGRCurve@@UAEPAXI@Z				; OGRCurve::`vector deleting destructor'
EXTRN	?get_IsClosed@OGRCurve@@UBEHXZ:PROC		; OGRCurve::get_IsClosed
;	COMDAT ??_R1A@?0A@EA@OGRCurve@@8
rdata$r	SEGMENT
??_R1A@?0A@EA@OGRCurve@@8 DD FLAT:??_R0?AVOGRCurve@@@8	; OGRCurve::`RTTI Base Class Descriptor at (0,-1,0,64)'
	DD	01H
	DD	00H
	DD	0ffffffffH
	DD	00H
	DD	040H
	DD	FLAT:??_R3OGRCurve@@8
rdata$r	ENDS
;	COMDAT ??_R2OGRCurve@@8
rdata$r	SEGMENT
??_R2OGRCurve@@8 DD FLAT:??_R1A@?0A@EA@OGRCurve@@8	; OGRCurve::`RTTI Base Class Array'
	DD	FLAT:??_R1A@?0A@EA@OGRGeometry@@8
rdata$r	ENDS
;	COMDAT ??_R3OGRCurve@@8
rdata$r	SEGMENT
??_R3OGRCurve@@8 DD 00H					; OGRCurve::`RTTI Class Hierarchy Descriptor'
	DD	00H
	DD	02H
	DD	FLAT:??_R2OGRCurve@@8
rdata$r	ENDS
;	COMDAT ??_R0?AVOGRCurve@@@8
_DATA	SEGMENT
??_R0?AVOGRCurve@@@8 DD FLAT:??_7type_info@@6B@		; OGRCurve `RTTI Type Descriptor'
	DD	00H
	DB	'.?AVOGRCurve@@', 00H
_DATA	ENDS
;	COMDAT ??_R4OGRCurve@@6B@
rdata$r	SEGMENT
??_R4OGRCurve@@6B@ DD 00H				; OGRCurve::`RTTI Complete Object Locator'
	DD	00H
	DD	00H
	DD	FLAT:??_R0?AVOGRCurve@@@8
	DD	FLAT:??_R3OGRCurve@@8
rdata$r	ENDS
;	COMDAT ??_7OGRCurve@@6B@
CONST	SEGMENT
??_7OGRCurve@@6B@ DD FLAT:??_R4OGRCurve@@6B@		; OGRCurve::`vftable'
	DD	FLAT:??_EOGRCurve@@UAEPAXI@Z
	DD	FLAT:__purecall
	DD	FLAT:?getCoordinateDimension@OGRGeometry@@UBEHXZ
	DD	FLAT:__purecall
	DD	FLAT:?IsValid@OGRGeometry@@UBEHXZ
	DD	FLAT:?IsSimple@OGRGeometry@@UBEHXZ
	DD	FLAT:?IsRing@OGRGeometry@@UBEHXZ
	DD	FLAT:__purecall
	DD	FLAT:__purecall
	DD	FLAT:__purecall
	DD	FLAT:__purecall
	DD	FLAT:__purecall
	DD	FLAT:__purecall
	DD	FLAT:__purecall
	DD	FLAT:__purecall
	DD	FLAT:__purecall
	DD	FLAT:__purecall
	DD	FLAT:__purecall
	DD	FLAT:?dumpReadable@OGRGeometry@@UBEXPAU_iobuf@@PBDPAPAD@Z
	DD	FLAT:__purecall
	DD	FLAT:?exportToGML@OGRGeometry@@UBEPADPBQBD@Z
	DD	FLAT:?exportToKML@OGRGeometry@@UBEPADXZ
	DD	FLAT:?exportToJson@OGRGeometry@@UBEPADXZ
	DD	FLAT:?exportToGEOS@OGRGeometry@@UBEPAUGEOSGeom_t@@XZ
	DD	FLAT:?closeRings@OGRGeometry@@UAEXXZ
	DD	FLAT:?setCoordinateDimension@OGRGeometry@@UAEXH@Z
	DD	FLAT:__purecall
	DD	FLAT:?segmentize@OGRGeometry@@UAEXN@Z
	DD	FLAT:?Intersects@OGRGeometry@@UBEHPAV1@@Z
	DD	FLAT:__purecall
	DD	FLAT:?Disjoint@OGRGeometry@@UBEHPBV1@@Z
	DD	FLAT:?Touches@OGRGeometry@@UBEHPBV1@@Z
	DD	FLAT:?Crosses@OGRGeometry@@UBEHPBV1@@Z
	DD	FLAT:?Within@OGRGeometry@@UBEHPBV1@@Z
	DD	FLAT:?Contains@OGRGeometry@@UBEHPBV1@@Z
	DD	FLAT:?Overlaps@OGRGeometry@@UBEHPBV1@@Z
	DD	FLAT:?Boundary@OGRGeometry@@UBEPAV1@XZ
	DD	FLAT:?Distance@OGRGeometry@@UBENPBV1@@Z
	DD	FLAT:?ConvexHull@OGRGeometry@@UBEPAV1@XZ
	DD	FLAT:?Buffer@OGRGeometry@@UBEPAV1@NH@Z
	DD	FLAT:?Intersection@OGRGeometry@@UBEPAV1@PBV1@@Z
	DD	FLAT:?Union@OGRGeometry@@UBEPAV1@PBV1@@Z
	DD	FLAT:?UnionCascaded@OGRGeometry@@UBEPAV1@XZ
	DD	FLAT:?Difference@OGRGeometry@@UBEPAV1@PBV1@@Z
	DD	FLAT:?SymDifference@OGRGeometry@@UBEPAV1@PBV1@@Z
	DD	FLAT:?Centroid@OGRGeometry@@UBEHPAVOGRPoint@@@Z
	DD	FLAT:?Simplify@OGRGeometry@@UBEPAV1@N@Z
	DD	FLAT:?Polygonize@OGRGeometry@@UBEPAV1@XZ
	DD	FLAT:?SymmetricDifference@OGRGeometry@@UBEPAV1@PBV1@@Z
	DD	FLAT:?getBoundary@OGRGeometry@@UBEPAV1@XZ
	DD	FLAT:?swapXY@OGRGeometry@@UAEXXZ
	DD	FLAT:__purecall
	DD	FLAT:__purecall
	DD	FLAT:__purecall
	DD	FLAT:?get_IsClosed@OGRCurve@@UBEHXZ
	DD	FLAT:__purecall
; Function compile flags: /Ogtp
CONST	ENDS
;	COMDAT ??0OGRCurve@@QAE@ABV0@@Z
_TEXT	SEGMENT
___that$ = 8						; size = 4
??0OGRCurve@@QAE@ABV0@@Z PROC				; OGRCurve::OGRCurve, COMDAT
; _this$ = ecx
	push	ebp
	mov	ebp, esp
	mov	eax, ecx
	mov	ecx, DWORD PTR ___that$[ebp]
	mov	DWORD PTR [eax], OFFSET ??_7OGRGeometry@@6B@
	mov	edx, DWORD PTR [ecx+4]
	mov	DWORD PTR [eax+4], edx
	mov	ecx, DWORD PTR [ecx+8]
	mov	DWORD PTR [eax+8], ecx
	mov	DWORD PTR [eax], OFFSET ??_7OGRCurve@@6B@
	pop	ebp
	ret	4
??0OGRCurve@@QAE@ABV0@@Z ENDP				; OGRCurve::OGRCurve
_TEXT	ENDS
PUBLIC	??4OGRCurve@@QAEAAV0@ABV0@@Z			; OGRCurve::operator=
; Function compile flags: /Ogtp
;	COMDAT ??4OGRCurve@@QAEAAV0@ABV0@@Z
_TEXT	SEGMENT
___that$ = 8						; size = 4
??4OGRCurve@@QAEAAV0@ABV0@@Z PROC			; OGRCurve::operator=, COMDAT
; _this$ = ecx
	push	ebp
	mov	ebp, esp
	mov	eax, ecx
	mov	ecx, DWORD PTR ___that$[ebp]
	mov	edx, DWORD PTR [ecx+4]
	mov	DWORD PTR [eax+4], edx
	mov	ecx, DWORD PTR [ecx+8]
	mov	DWORD PTR [eax+8], ecx
	pop	ebp
	ret	4
??4OGRCurve@@QAEAAV0@ABV0@@Z ENDP			; OGRCurve::operator=
_TEXT	ENDS
PUBLIC	??_GOGRCurve@@UAEPAXI@Z				; OGRCurve::`scalar deleting destructor'
EXTRN	??1OGRCurve@@UAE@XZ:PROC			; OGRCurve::~OGRCurve
; Function compile flags: /Ogtp
;	COMDAT ??_GOGRCurve@@UAEPAXI@Z
_TEXT	SEGMENT
___flags$ = 8						; size = 4
??_GOGRCurve@@UAEPAXI@Z PROC				; OGRCurve::`scalar deleting destructor', COMDAT
; _this$ = ecx
	push	ebp
	mov	ebp, esp
	push	esi
	mov	esi, ecx
	call	??1OGRCurve@@UAE@XZ			; OGRCurve::~OGRCurve
	test	BYTE PTR ___flags$[ebp], 1
	je	SHORT $LN4@scalar@5
	push	esi
	call	??3@YAXPAX@Z				; operator delete
	add	esp, 4
$LN4@scalar@5:
	mov	eax, esi
	pop	esi
	pop	ebp
	ret	4
??_GOGRCurve@@UAEPAXI@Z ENDP				; OGRCurve::`scalar deleting destructor'
; Function compile flags: /Ogtp
_TEXT	ENDS
;	COMDAT ??_EOGRCurve@@UAEPAXI@Z
_TEXT	SEGMENT
___flags$ = 8						; size = 4
??_EOGRCurve@@UAEPAXI@Z PROC				; OGRCurve::`vector deleting destructor', COMDAT
; _this$ = ecx
	push	ebp
	mov	ebp, esp
	push	ebx
	mov	bl, BYTE PTR ___flags$[ebp]
	push	esi
	mov	esi, ecx
	test	bl, 2
	je	SHORT $LN3@vector@5
	mov	eax, DWORD PTR [esi-4]
	push	edi
	push	OFFSET ??1OGRCurve@@UAE@XZ		; OGRCurve::~OGRCurve
	lea	edi, DWORD PTR [esi-4]
	push	eax
	push	12					; 0000000cH
	push	esi
	call	??_M@YGXPAXIHP6EX0@Z@Z
	test	bl, 1
	je	SHORT $LN2@vector@5
	push	edi
	call	??_V@YAXPAX@Z				; operator delete[]
	add	esp, 4
$LN2@vector@5:
	mov	eax, edi
	pop	edi
	pop	esi
	pop	ebx
	pop	ebp
	ret	4
$LN3@vector@5:
	call	??1OGRCurve@@UAE@XZ			; OGRCurve::~OGRCurve
	test	bl, 1
	je	SHORT $LN1@vector@5
	push	esi
	call	??3@YAXPAX@Z				; operator delete
	add	esp, 4
$LN1@vector@5:
	mov	eax, esi
	pop	esi
	pop	ebx
	pop	ebp
	ret	4
??_EOGRCurve@@UAEPAXI@Z ENDP				; OGRCurve::`vector deleting destructor'
_TEXT	ENDS
PUBLIC	?getNumPoints@OGRLineString@@QBEHXZ		; OGRLineString::getNumPoints
; Function compile flags: /Ogtp
;	COMDAT ?getNumPoints@OGRLineString@@QBEHXZ
_TEXT	SEGMENT
?getNumPoints@OGRLineString@@QBEHXZ PROC		; OGRLineString::getNumPoints, COMDAT
; _this$ = ecx
; Line 293
	mov	eax, DWORD PTR [ecx+12]
	ret	0
?getNumPoints@OGRLineString@@QBEHXZ ENDP		; OGRLineString::getNumPoints
_TEXT	ENDS
PUBLIC	?getX@OGRLineString@@QBENH@Z			; OGRLineString::getX
; Function compile flags: /Ogtp
;	COMDAT ?getX@OGRLineString@@QBENH@Z
_TEXT	SEGMENT
_i$ = 8							; size = 4
?getX@OGRLineString@@QBENH@Z PROC			; OGRLineString::getX, COMDAT
; _this$ = ecx
; Line 295
	push	ebp
	mov	ebp, esp
	mov	eax, DWORD PTR _i$[ebp]
	mov	ecx, DWORD PTR [ecx+16]
	add	eax, eax
	fld	QWORD PTR [ecx+eax*8]
	pop	ebp
	ret	4
?getX@OGRLineString@@QBENH@Z ENDP			; OGRLineString::getX
_TEXT	ENDS
PUBLIC	?getY@OGRLineString@@QBENH@Z			; OGRLineString::getY
; Function compile flags: /Ogtp
;	COMDAT ?getY@OGRLineString@@QBENH@Z
_TEXT	SEGMENT
_i$ = 8							; size = 4
?getY@OGRLineString@@QBENH@Z PROC			; OGRLineString::getY, COMDAT
; _this$ = ecx
; Line 296
	push	ebp
	mov	ebp, esp
	mov	eax, DWORD PTR _i$[ebp]
	mov	ecx, DWORD PTR [ecx+16]
	add	eax, eax
	fld	QWORD PTR [ecx+eax*8+8]
	pop	ebp
	ret	4
?getY@OGRLineString@@QBENH@Z ENDP			; OGRLineString::getY
_TEXT	ENDS
PUBLIC	??_7OGRLineString@@6B@				; OGRLineString::`vftable'
PUBLIC	??0OGRLineString@@QAE@ABV0@@Z			; OGRLineString::OGRLineString
PUBLIC	??_R4OGRLineString@@6B@				; OGRLineString::`RTTI Complete Object Locator'
PUBLIC	??_R0?AVOGRLineString@@@8			; OGRLineString `RTTI Type Descriptor'
PUBLIC	??_R3OGRLineString@@8				; OGRLineString::`RTTI Class Hierarchy Descriptor'
PUBLIC	??_R2OGRLineString@@8				; OGRLineString::`RTTI Base Class Array'
PUBLIC	??_R1A@?0A@EA@OGRLineString@@8			; OGRLineString::`RTTI Base Class Descriptor at (0,-1,0,64)'
PUBLIC	??_EOGRLineString@@UAEPAXI@Z			; OGRLineString::`vector deleting destructor'
EXTRN	?getDimension@OGRLineString@@UBEHXZ:PROC	; OGRLineString::getDimension
EXTRN	?IsEmpty@OGRLineString@@UBEHXZ:PROC		; OGRLineString::IsEmpty
EXTRN	?empty@OGRLineString@@UAEXXZ:PROC		; OGRLineString::empty
EXTRN	?clone@OGRLineString@@UBEPAVOGRGeometry@@XZ:PROC ; OGRLineString::clone
EXTRN	?getEnvelope@OGRLineString@@UBEXPAVOGREnvelope3D@@@Z:PROC ; OGRLineString::getEnvelope
EXTRN	?getEnvelope@OGRLineString@@UBEXPAVOGREnvelope@@@Z:PROC ; OGRLineString::getEnvelope
EXTRN	?WkbSize@OGRLineString@@UBEHXZ:PROC		; OGRLineString::WkbSize
EXTRN	?importFromWkb@OGRLineString@@UAEHPAEH@Z:PROC	; OGRLineString::importFromWkb
EXTRN	?exportToWkb@OGRLineString@@UBEHW4OGRwkbByteOrder@@PAE@Z:PROC ; OGRLineString::exportToWkb
EXTRN	?importFromWkt@OGRLineString@@UAEHPAPAD@Z:PROC	; OGRLineString::importFromWkt
EXTRN	?exportToWkt@OGRLineString@@UBEHPAPAD@Z:PROC	; OGRLineString::exportToWkt
EXTRN	?getGeometryType@OGRLineString@@UBE?AW4OGRwkbGeometryType@@XZ:PROC ; OGRLineString::getGeometryType
EXTRN	?getGeometryName@OGRLineString@@UBEPBDXZ:PROC	; OGRLineString::getGeometryName
EXTRN	?flattenTo2D@OGRLineString@@UAEXXZ:PROC		; OGRLineString::flattenTo2D
EXTRN	?setCoordinateDimension@OGRLineString@@UAEXH@Z:PROC ; OGRLineString::setCoordinateDimension
EXTRN	?transform@OGRLineString@@UAEHPAVOGRCoordinateTransformation@@@Z:PROC ; OGRLineString::transform
EXTRN	?segmentize@OGRLineString@@UAEXN@Z:PROC		; OGRLineString::segmentize
EXTRN	?Equals@OGRLineString@@UBEHPAVOGRGeometry@@@Z:PROC ; OGRLineString::Equals
EXTRN	?swapXY@OGRLineString@@UAEXXZ:PROC		; OGRLineString::swapXY
EXTRN	?get_Length@OGRLineString@@UBENXZ:PROC		; OGRLineString::get_Length
EXTRN	?StartPoint@OGRLineString@@UBEXPAVOGRPoint@@@Z:PROC ; OGRLineString::StartPoint
EXTRN	?EndPoint@OGRLineString@@UBEXPAVOGRPoint@@@Z:PROC ; OGRLineString::EndPoint
EXTRN	?Value@OGRLineString@@UBEXNPAVOGRPoint@@@Z:PROC	; OGRLineString::Value
;	COMDAT ??_R1A@?0A@EA@OGRLineString@@8
rdata$r	SEGMENT
??_R1A@?0A@EA@OGRLineString@@8 DD FLAT:??_R0?AVOGRLineString@@@8 ; OGRLineString::`RTTI Base Class Descriptor at (0,-1,0,64)'
	DD	02H
	DD	00H
	DD	0ffffffffH
	DD	00H
	DD	040H
	DD	FLAT:??_R3OGRLineString@@8
rdata$r	ENDS
;	COMDAT ??_R2OGRLineString@@8
rdata$r	SEGMENT
??_R2OGRLineString@@8 DD FLAT:??_R1A@?0A@EA@OGRLineString@@8 ; OGRLineString::`RTTI Base Class Array'
	DD	FLAT:??_R1A@?0A@EA@OGRCurve@@8
	DD	FLAT:??_R1A@?0A@EA@OGRGeometry@@8
rdata$r	ENDS
;	COMDAT ??_R3OGRLineString@@8
rdata$r	SEGMENT
??_R3OGRLineString@@8 DD 00H				; OGRLineString::`RTTI Class Hierarchy Descriptor'
	DD	00H
	DD	03H
	DD	FLAT:??_R2OGRLineString@@8
rdata$r	ENDS
;	COMDAT ??_R0?AVOGRLineString@@@8
_DATA	SEGMENT
??_R0?AVOGRLineString@@@8 DD FLAT:??_7type_info@@6B@	; OGRLineString `RTTI Type Descriptor'
	DD	00H
	DB	'.?AVOGRLineString@@', 00H
_DATA	ENDS
;	COMDAT ??_R4OGRLineString@@6B@
rdata$r	SEGMENT
??_R4OGRLineString@@6B@ DD 00H				; OGRLineString::`RTTI Complete Object Locator'
	DD	00H
	DD	00H
	DD	FLAT:??_R0?AVOGRLineString@@@8
	DD	FLAT:??_R3OGRLineString@@8
rdata$r	ENDS
;	COMDAT ??_7OGRLineString@@6B@
CONST	SEGMENT
??_7OGRLineString@@6B@ DD FLAT:??_R4OGRLineString@@6B@	; OGRLineString::`vftable'
	DD	FLAT:??_EOGRLineString@@UAEPAXI@Z
	DD	FLAT:?getDimension@OGRLineString@@UBEHXZ
	DD	FLAT:?getCoordinateDimension@OGRGeometry@@UBEHXZ
	DD	FLAT:?IsEmpty@OGRLineString@@UBEHXZ
	DD	FLAT:?IsValid@OGRGeometry@@UBEHXZ
	DD	FLAT:?IsSimple@OGRGeometry@@UBEHXZ
	DD	FLAT:?IsRing@OGRGeometry@@UBEHXZ
	DD	FLAT:?empty@OGRLineString@@UAEXXZ
	DD	FLAT:?clone@OGRLineString@@UBEPAVOGRGeometry@@XZ
	DD	FLAT:?getEnvelope@OGRLineString@@UBEXPAVOGREnvelope3D@@@Z
	DD	FLAT:?getEnvelope@OGRLineString@@UBEXPAVOGREnvelope@@@Z
	DD	FLAT:?WkbSize@OGRLineString@@UBEHXZ
	DD	FLAT:?importFromWkb@OGRLineString@@UAEHPAEH@Z
	DD	FLAT:?exportToWkb@OGRLineString@@UBEHW4OGRwkbByteOrder@@PAE@Z
	DD	FLAT:?importFromWkt@OGRLineString@@UAEHPAPAD@Z
	DD	FLAT:?exportToWkt@OGRLineString@@UBEHPAPAD@Z
	DD	FLAT:?getGeometryType@OGRLineString@@UBE?AW4OGRwkbGeometryType@@XZ
	DD	FLAT:?getGeometryName@OGRLineString@@UBEPBDXZ
	DD	FLAT:?dumpReadable@OGRGeometry@@UBEXPAU_iobuf@@PBDPAPAD@Z
	DD	FLAT:?flattenTo2D@OGRLineString@@UAEXXZ
	DD	FLAT:?exportToGML@OGRGeometry@@UBEPADPBQBD@Z
	DD	FLAT:?exportToKML@OGRGeometry@@UBEPADXZ
	DD	FLAT:?exportToJson@OGRGeometry@@UBEPADXZ
	DD	FLAT:?exportToGEOS@OGRGeometry@@UBEPAUGEOSGeom_t@@XZ
	DD	FLAT:?closeRings@OGRGeometry@@UAEXXZ
	DD	FLAT:?setCoordinateDimension@OGRLineString@@UAEXH@Z
	DD	FLAT:?transform@OGRLineString@@UAEHPAVOGRCoordinateTransformation@@@Z
	DD	FLAT:?segmentize@OGRLineString@@UAEXN@Z
	DD	FLAT:?Intersects@OGRGeometry@@UBEHPAV1@@Z
	DD	FLAT:?Equals@OGRLineString@@UBEHPAVOGRGeometry@@@Z
	DD	FLAT:?Disjoint@OGRGeometry@@UBEHPBV1@@Z
	DD	FLAT:?Touches@OGRGeometry@@UBEHPBV1@@Z
	DD	FLAT:?Crosses@OGRGeometry@@UBEHPBV1@@Z
	DD	FLAT:?Within@OGRGeometry@@UBEHPBV1@@Z
	DD	FLAT:?Contains@OGRGeometry@@UBEHPBV1@@Z
	DD	FLAT:?Overlaps@OGRGeometry@@UBEHPBV1@@Z
	DD	FLAT:?Boundary@OGRGeometry@@UBEPAV1@XZ
	DD	FLAT:?Distance@OGRGeometry@@UBENPBV1@@Z
	DD	FLAT:?ConvexHull@OGRGeometry@@UBEPAV1@XZ
	DD	FLAT:?Buffer@OGRGeometry@@UBEPAV1@NH@Z
	DD	FLAT:?Intersection@OGRGeometry@@UBEPAV1@PBV1@@Z
	DD	FLAT:?Union@OGRGeometry@@UBEPAV1@PBV1@@Z
	DD	FLAT:?UnionCascaded@OGRGeometry@@UBEPAV1@XZ
	DD	FLAT:?Difference@OGRGeometry@@UBEPAV1@PBV1@@Z
	DD	FLAT:?SymDifference@OGRGeometry@@UBEPAV1@PBV1@@Z
	DD	FLAT:?Centroid@OGRGeometry@@UBEHPAVOGRPoint@@@Z
	DD	FLAT:?Simplify@OGRGeometry@@UBEPAV1@N@Z
	DD	FLAT:?Polygonize@OGRGeometry@@UBEPAV1@XZ
	DD	FLAT:?SymmetricDifference@OGRGeometry@@UBEPAV1@PBV1@@Z
	DD	FLAT:?getBoundary@OGRGeometry@@UBEPAV1@XZ
	DD	FLAT:?swapXY@OGRLineString@@UAEXXZ
	DD	FLAT:?get_Length@OGRLineString@@UBENXZ
	DD	FLAT:?StartPoint@OGRLineString@@UBEXPAVOGRPoint@@@Z
	DD	FLAT:?EndPoint@OGRLineString@@UBEXPAVOGRPoint@@@Z
	DD	FLAT:?get_IsClosed@OGRCurve@@UBEHXZ
	DD	FLAT:?Value@OGRLineString@@UBEXNPAVOGRPoint@@@Z
; Function compile flags: /Ogtp
CONST	ENDS
;	COMDAT ??0OGRLineString@@QAE@ABV0@@Z
_TEXT	SEGMENT
___that$ = 8						; size = 4
??0OGRLineString@@QAE@ABV0@@Z PROC			; OGRLineString::OGRLineString, COMDAT
; _this$ = ecx
	push	ebp
	mov	ebp, esp
	mov	eax, ecx
	mov	ecx, DWORD PTR ___that$[ebp]
	mov	DWORD PTR [eax], OFFSET ??_7OGRGeometry@@6B@
	mov	edx, DWORD PTR [ecx+4]
	mov	DWORD PTR [eax+4], edx
	mov	edx, DWORD PTR [ecx+8]
	mov	DWORD PTR [eax+8], edx
	mov	DWORD PTR [eax], OFFSET ??_7OGRLineString@@6B@
	mov	edx, DWORD PTR [ecx+12]
	mov	DWORD PTR [eax+12], edx
	mov	edx, DWORD PTR [ecx+16]
	mov	DWORD PTR [eax+16], edx
	mov	ecx, DWORD PTR [ecx+20]
	mov	DWORD PTR [eax+20], ecx
	pop	ebp
	ret	4
??0OGRLineString@@QAE@ABV0@@Z ENDP			; OGRLineString::OGRLineString
_TEXT	ENDS
PUBLIC	??4OGRLineString@@QAEAAV0@ABV0@@Z		; OGRLineString::operator=
; Function compile flags: /Ogtp
;	COMDAT ??4OGRLineString@@QAEAAV0@ABV0@@Z
_TEXT	SEGMENT
___that$ = 8						; size = 4
??4OGRLineString@@QAEAAV0@ABV0@@Z PROC			; OGRLineString::operator=, COMDAT
; _this$ = ecx
	push	ebp
	mov	ebp, esp
	mov	eax, ecx
	mov	ecx, DWORD PTR ___that$[ebp]
	mov	edx, DWORD PTR [ecx+4]
	mov	DWORD PTR [eax+4], edx
	mov	edx, DWORD PTR [ecx+8]
	mov	DWORD PTR [eax+8], edx
	mov	edx, DWORD PTR [ecx+12]
	mov	DWORD PTR [eax+12], edx
	mov	edx, DWORD PTR [ecx+16]
	mov	DWORD PTR [eax+16], edx
	mov	ecx, DWORD PTR [ecx+20]
	mov	DWORD PTR [eax+20], ecx
	pop	ebp
	ret	4
??4OGRLineString@@QAEAAV0@ABV0@@Z ENDP			; OGRLineString::operator=
_TEXT	ENDS
PUBLIC	??_GOGRLineString@@UAEPAXI@Z			; OGRLineString::`scalar deleting destructor'
EXTRN	??1OGRLineString@@UAE@XZ:PROC			; OGRLineString::~OGRLineString
; Function compile flags: /Ogtp
;	COMDAT ??_GOGRLineString@@UAEPAXI@Z
_TEXT	SEGMENT
___flags$ = 8						; size = 4
??_GOGRLineString@@UAEPAXI@Z PROC			; OGRLineString::`scalar deleting destructor', COMDAT
; _this$ = ecx
	push	ebp
	mov	ebp, esp
	push	esi
	mov	esi, ecx
	call	??1OGRLineString@@UAE@XZ		; OGRLineString::~OGRLineString
	test	BYTE PTR ___flags$[ebp], 1
	je	SHORT $LN4@scalar@6
	push	esi
	call	??3@YAXPAX@Z				; operator delete
	add	esp, 4
$LN4@scalar@6:
	mov	eax, esi
	pop	esi
	pop	ebp
	ret	4
??_GOGRLineString@@UAEPAXI@Z ENDP			; OGRLineString::`scalar deleting destructor'
; Function compile flags: /Ogtp
_TEXT	ENDS
;	COMDAT ??_EOGRLineString@@UAEPAXI@Z
_TEXT	SEGMENT
___flags$ = 8						; size = 4
??_EOGRLineString@@UAEPAXI@Z PROC			; OGRLineString::`vector deleting destructor', COMDAT
; _this$ = ecx
	push	ebp
	mov	ebp, esp
	push	ebx
	mov	bl, BYTE PTR ___flags$[ebp]
	push	esi
	mov	esi, ecx
	test	bl, 2
	je	SHORT $LN3@vector@6
	mov	eax, DWORD PTR [esi-4]
	push	edi
	push	OFFSET ??1OGRLineString@@UAE@XZ		; OGRLineString::~OGRLineString
	lea	edi, DWORD PTR [esi-4]
	push	eax
	push	24					; 00000018H
	push	esi
	call	??_M@YGXPAXIHP6EX0@Z@Z
	test	bl, 1
	je	SHORT $LN2@vector@6
	push	edi
	call	??_V@YAXPAX@Z				; operator delete[]
	add	esp, 4
$LN2@vector@6:
	mov	eax, edi
	pop	edi
	pop	esi
	pop	ebx
	pop	ebp
	ret	4
$LN3@vector@6:
	call	??1OGRLineString@@UAE@XZ		; OGRLineString::~OGRLineString
	test	bl, 1
	je	SHORT $LN1@vector@6
	push	esi
	call	??3@YAXPAX@Z				; operator delete
	add	esp, 4
$LN1@vector@6:
	mov	eax, esi
	pop	esi
	pop	ebx
	pop	ebp
	ret	4
??_EOGRLineString@@UAEPAXI@Z ENDP			; OGRLineString::`vector deleting destructor'
_TEXT	ENDS
PUBLIC	??_7OGRLinearRing@@6B@				; OGRLinearRing::`vftable'
PUBLIC	??0OGRLinearRing@@QAE@ABV0@@Z			; OGRLinearRing::OGRLinearRing
PUBLIC	??_R4OGRLinearRing@@6B@				; OGRLinearRing::`RTTI Complete Object Locator'
PUBLIC	??_R0?AVOGRLinearRing@@@8			; OGRLinearRing `RTTI Type Descriptor'
PUBLIC	??_R3OGRLinearRing@@8				; OGRLinearRing::`RTTI Class Hierarchy Descriptor'
PUBLIC	??_R2OGRLinearRing@@8				; OGRLinearRing::`RTTI Base Class Array'
PUBLIC	??_R1A@?0A@EA@OGRLinearRing@@8			; OGRLinearRing::`RTTI Base Class Descriptor at (0,-1,0,64)'
PUBLIC	??_EOGRLinearRing@@UAEPAXI@Z			; OGRLinearRing::`vector deleting destructor'
EXTRN	?clone@OGRLinearRing@@UBEPAVOGRGeometry@@XZ:PROC ; OGRLinearRing::clone
EXTRN	?WkbSize@OGRLinearRing@@UBEHXZ:PROC		; OGRLinearRing::WkbSize
EXTRN	?importFromWkb@OGRLinearRing@@UAEHPAEH@Z:PROC	; OGRLinearRing::importFromWkb
EXTRN	?exportToWkb@OGRLinearRing@@UBEHW4OGRwkbByteOrder@@PAE@Z:PROC ; OGRLinearRing::exportToWkb
EXTRN	?getGeometryName@OGRLinearRing@@UBEPBDXZ:PROC	; OGRLinearRing::getGeometryName
EXTRN	?closeRings@OGRLinearRing@@UAEXXZ:PROC		; OGRLinearRing::closeRings
EXTRN	?_WkbSize@OGRLinearRing@@EBEHH@Z:PROC		; OGRLinearRing::_WkbSize
EXTRN	?_importFromWkb@OGRLinearRing@@EAEHW4OGRwkbByteOrder@@HPAEH@Z:PROC ; OGRLinearRing::_importFromWkb
EXTRN	?_exportToWkb@OGRLinearRing@@EBEHW4OGRwkbByteOrder@@HPAE@Z:PROC ; OGRLinearRing::_exportToWkb
EXTRN	?isClockwise@OGRLinearRing@@UBEHXZ:PROC		; OGRLinearRing::isClockwise
EXTRN	?reverseWindingOrder@OGRLinearRing@@UAEXXZ:PROC	; OGRLinearRing::reverseWindingOrder
EXTRN	?get_Area@OGRLinearRing@@UBENXZ:PROC		; OGRLinearRing::get_Area
;	COMDAT ??_R1A@?0A@EA@OGRLinearRing@@8
rdata$r	SEGMENT
??_R1A@?0A@EA@OGRLinearRing@@8 DD FLAT:??_R0?AVOGRLinearRing@@@8 ; OGRLinearRing::`RTTI Base Class Descriptor at (0,-1,0,64)'
	DD	03H
	DD	00H
	DD	0ffffffffH
	DD	00H
	DD	040H
	DD	FLAT:??_R3OGRLinearRing@@8
rdata$r	ENDS
;	COMDAT ??_R2OGRLinearRing@@8
rdata$r	SEGMENT
??_R2OGRLinearRing@@8 DD FLAT:??_R1A@?0A@EA@OGRLinearRing@@8 ; OGRLinearRing::`RTTI Base Class Array'
	DD	FLAT:??_R1A@?0A@EA@OGRLineString@@8
	DD	FLAT:??_R1A@?0A@EA@OGRCurve@@8
	DD	FLAT:??_R1A@?0A@EA@OGRGeometry@@8
rdata$r	ENDS
;	COMDAT ??_R3OGRLinearRing@@8
rdata$r	SEGMENT
??_R3OGRLinearRing@@8 DD 00H				; OGRLinearRing::`RTTI Class Hierarchy Descriptor'
	DD	00H
	DD	04H
	DD	FLAT:??_R2OGRLinearRing@@8
rdata$r	ENDS
;	COMDAT ??_R0?AVOGRLinearRing@@@8
_DATA	SEGMENT
??_R0?AVOGRLinearRing@@@8 DD FLAT:??_7type_info@@6B@	; OGRLinearRing `RTTI Type Descriptor'
	DD	00H
	DB	'.?AVOGRLinearRing@@', 00H
_DATA	ENDS
;	COMDAT ??_R4OGRLinearRing@@6B@
rdata$r	SEGMENT
??_R4OGRLinearRing@@6B@ DD 00H				; OGRLinearRing::`RTTI Complete Object Locator'
	DD	00H
	DD	00H
	DD	FLAT:??_R0?AVOGRLinearRing@@@8
	DD	FLAT:??_R3OGRLinearRing@@8
rdata$r	ENDS
;	COMDAT ??_7OGRLinearRing@@6B@
CONST	SEGMENT
??_7OGRLinearRing@@6B@ DD FLAT:??_R4OGRLinearRing@@6B@	; OGRLinearRing::`vftable'
	DD	FLAT:??_EOGRLinearRing@@UAEPAXI@Z
	DD	FLAT:?getDimension@OGRLineString@@UBEHXZ
	DD	FLAT:?getCoordinateDimension@OGRGeometry@@UBEHXZ
	DD	FLAT:?IsEmpty@OGRLineString@@UBEHXZ
	DD	FLAT:?IsValid@OGRGeometry@@UBEHXZ
	DD	FLAT:?IsSimple@OGRGeometry@@UBEHXZ
	DD	FLAT:?IsRing@OGRGeometry@@UBEHXZ
	DD	FLAT:?empty@OGRLineString@@UAEXXZ
	DD	FLAT:?clone@OGRLinearRing@@UBEPAVOGRGeometry@@XZ
	DD	FLAT:?getEnvelope@OGRLineString@@UBEXPAVOGREnvelope3D@@@Z
	DD	FLAT:?getEnvelope@OGRLineString@@UBEXPAVOGREnvelope@@@Z
	DD	FLAT:?WkbSize@OGRLinearRing@@UBEHXZ
	DD	FLAT:?importFromWkb@OGRLinearRing@@UAEHPAEH@Z
	DD	FLAT:?exportToWkb@OGRLinearRing@@UBEHW4OGRwkbByteOrder@@PAE@Z
	DD	FLAT:?importFromWkt@OGRLineString@@UAEHPAPAD@Z
	DD	FLAT:?exportToWkt@OGRLineString@@UBEHPAPAD@Z
	DD	FLAT:?getGeometryType@OGRLineString@@UBE?AW4OGRwkbGeometryType@@XZ
	DD	FLAT:?getGeometryName@OGRLinearRing@@UBEPBDXZ
	DD	FLAT:?dumpReadable@OGRGeometry@@UBEXPAU_iobuf@@PBDPAPAD@Z
	DD	FLAT:?flattenTo2D@OGRLineString@@UAEXXZ
	DD	FLAT:?exportToGML@OGRGeometry@@UBEPADPBQBD@Z
	DD	FLAT:?exportToKML@OGRGeometry@@UBEPADXZ
	DD	FLAT:?exportToJson@OGRGeometry@@UBEPADXZ
	DD	FLAT:?exportToGEOS@OGRGeometry@@UBEPAUGEOSGeom_t@@XZ
	DD	FLAT:?closeRings@OGRLinearRing@@UAEXXZ
	DD	FLAT:?setCoordinateDimension@OGRLineString@@UAEXH@Z
	DD	FLAT:?transform@OGRLineString@@UAEHPAVOGRCoordinateTransformation@@@Z
	DD	FLAT:?segmentize@OGRLineString@@UAEXN@Z
	DD	FLAT:?Intersects@OGRGeometry@@UBEHPAV1@@Z
	DD	FLAT:?Equals@OGRLineString@@UBEHPAVOGRGeometry@@@Z
	DD	FLAT:?Disjoint@OGRGeometry@@UBEHPBV1@@Z
	DD	FLAT:?Touches@OGRGeometry@@UBEHPBV1@@Z
	DD	FLAT:?Crosses@OGRGeometry@@UBEHPBV1@@Z
	DD	FLAT:?Within@OGRGeometry@@UBEHPBV1@@Z
	DD	FLAT:?Contains@OGRGeometry@@UBEHPBV1@@Z
	DD	FLAT:?Overlaps@OGRGeometry@@UBEHPBV1@@Z
	DD	FLAT:?Boundary@OGRGeometry@@UBEPAV1@XZ
	DD	FLAT:?Distance@OGRGeometry@@UBENPBV1@@Z
	DD	FLAT:?ConvexHull@OGRGeometry@@UBEPAV1@XZ
	DD	FLAT:?Buffer@OGRGeometry@@UBEPAV1@NH@Z
	DD	FLAT:?Intersection@OGRGeometry@@UBEPAV1@PBV1@@Z
	DD	FLAT:?Union@OGRGeometry@@UBEPAV1@PBV1@@Z
	DD	FLAT:?UnionCascaded@OGRGeometry@@UBEPAV1@XZ
	DD	FLAT:?Difference@OGRGeometry@@UBEPAV1@PBV1@@Z
	DD	FLAT:?SymDifference@OGRGeometry@@UBEPAV1@PBV1@@Z
	DD	FLAT:?Centroid@OGRGeometry@@UBEHPAVOGRPoint@@@Z
	DD	FLAT:?Simplify@OGRGeometry@@UBEPAV1@N@Z
	DD	FLAT:?Polygonize@OGRGeometry@@UBEPAV1@XZ
	DD	FLAT:?SymmetricDifference@OGRGeometry@@UBEPAV1@PBV1@@Z
	DD	FLAT:?getBoundary@OGRGeometry@@UBEPAV1@XZ
	DD	FLAT:?swapXY@OGRLineString@@UAEXXZ
	DD	FLAT:?get_Length@OGRLineString@@UBENXZ
	DD	FLAT:?StartPoint@OGRLineString@@UBEXPAVOGRPoint@@@Z
	DD	FLAT:?EndPoint@OGRLineString@@UBEXPAVOGRPoint@@@Z
	DD	FLAT:?get_IsClosed@OGRCurve@@UBEHXZ
	DD	FLAT:?Value@OGRLineString@@UBEXNPAVOGRPoint@@@Z
	DD	FLAT:?_WkbSize@OGRLinearRing@@EBEHH@Z
	DD	FLAT:?_importFromWkb@OGRLinearRing@@EAEHW4OGRwkbByteOrder@@HPAEH@Z
	DD	FLAT:?_exportToWkb@OGRLinearRing@@EBEHW4OGRwkbByteOrder@@HPAE@Z
	DD	FLAT:?isClockwise@OGRLinearRing@@UBEHXZ
	DD	FLAT:?reverseWindingOrder@OGRLinearRing@@UAEXXZ
	DD	FLAT:?get_Area@OGRLinearRing@@UBENXZ
; Function compile flags: /Ogtp
CONST	ENDS
;	COMDAT ??0OGRLinearRing@@QAE@ABV0@@Z
_TEXT	SEGMENT
___that$ = 8						; size = 4
??0OGRLinearRing@@QAE@ABV0@@Z PROC			; OGRLinearRing::OGRLinearRing, COMDAT
; _this$ = ecx
	push	ebp
	mov	ebp, esp
	mov	eax, ecx
	mov	ecx, DWORD PTR ___that$[ebp]
	mov	DWORD PTR [eax], OFFSET ??_7OGRGeometry@@6B@
	mov	edx, DWORD PTR [ecx+4]
	mov	DWORD PTR [eax+4], edx
	mov	edx, DWORD PTR [ecx+8]
	mov	DWORD PTR [eax], OFFSET ??_7OGRLineString@@6B@
	mov	DWORD PTR [eax+8], edx
	mov	edx, DWORD PTR [ecx+12]
	mov	DWORD PTR [eax+12], edx
	mov	edx, DWORD PTR [ecx+16]
	mov	DWORD PTR [eax+16], edx
	mov	ecx, DWORD PTR [ecx+20]
	mov	DWORD PTR [eax+20], ecx
	mov	DWORD PTR [eax], OFFSET ??_7OGRLinearRing@@6B@
	pop	ebp
	ret	4
??0OGRLinearRing@@QAE@ABV0@@Z ENDP			; OGRLinearRing::OGRLinearRing
_TEXT	ENDS
PUBLIC	??4OGRLinearRing@@QAEAAV0@ABV0@@Z		; OGRLinearRing::operator=
; Function compile flags: /Ogtp
;	COMDAT ??4OGRLinearRing@@QAEAAV0@ABV0@@Z
_TEXT	SEGMENT
___that$ = 8						; size = 4
??4OGRLinearRing@@QAEAAV0@ABV0@@Z PROC			; OGRLinearRing::operator=, COMDAT
; _this$ = ecx
	push	ebp
	mov	ebp, esp
	mov	eax, ecx
	mov	ecx, DWORD PTR ___that$[ebp]
	mov	edx, DWORD PTR [ecx+4]
	mov	DWORD PTR [eax+4], edx
	mov	edx, DWORD PTR [ecx+8]
	mov	DWORD PTR [eax+8], edx
	mov	edx, DWORD PTR [ecx+12]
	mov	DWORD PTR [eax+12], edx
	mov	edx, DWORD PTR [ecx+16]
	mov	DWORD PTR [eax+16], edx
	mov	ecx, DWORD PTR [ecx+20]
	mov	DWORD PTR [eax+20], ecx
	pop	ebp
	ret	4
??4OGRLinearRing@@QAEAAV0@ABV0@@Z ENDP			; OGRLinearRing::operator=
_TEXT	ENDS
PUBLIC	??_GOGRLinearRing@@UAEPAXI@Z			; OGRLinearRing::`scalar deleting destructor'
EXTRN	??1OGRLinearRing@@UAE@XZ:PROC			; OGRLinearRing::~OGRLinearRing
; Function compile flags: /Ogtp
;	COMDAT ??_GOGRLinearRing@@UAEPAXI@Z
_TEXT	SEGMENT
___flags$ = 8						; size = 4
??_GOGRLinearRing@@UAEPAXI@Z PROC			; OGRLinearRing::`scalar deleting destructor', COMDAT
; _this$ = ecx
	push	ebp
	mov	ebp, esp
	push	esi
	mov	esi, ecx
	call	??1OGRLinearRing@@UAE@XZ		; OGRLinearRing::~OGRLinearRing
	test	BYTE PTR ___flags$[ebp], 1
	je	SHORT $LN4@scalar@7
	push	esi
	call	??3@YAXPAX@Z				; operator delete
	add	esp, 4
$LN4@scalar@7:
	mov	eax, esi
	pop	esi
	pop	ebp
	ret	4
??_GOGRLinearRing@@UAEPAXI@Z ENDP			; OGRLinearRing::`scalar deleting destructor'
; Function compile flags: /Ogtp
_TEXT	ENDS
;	COMDAT ??_EOGRLinearRing@@UAEPAXI@Z
_TEXT	SEGMENT
___flags$ = 8						; size = 4
??_EOGRLinearRing@@UAEPAXI@Z PROC			; OGRLinearRing::`vector deleting destructor', COMDAT
; _this$ = ecx
	push	ebp
	mov	ebp, esp
	push	ebx
	mov	bl, BYTE PTR ___flags$[ebp]
	push	esi
	mov	esi, ecx
	test	bl, 2
	je	SHORT $LN3@vector@7
	mov	eax, DWORD PTR [esi-4]
	push	edi
	push	OFFSET ??1OGRLinearRing@@UAE@XZ		; OGRLinearRing::~OGRLinearRing
	lea	edi, DWORD PTR [esi-4]
	push	eax
	push	24					; 00000018H
	push	esi
	call	??_M@YGXPAXIHP6EX0@Z@Z
	test	bl, 1
	je	SHORT $LN2@vector@7
	push	edi
	call	??_V@YAXPAX@Z				; operator delete[]
	add	esp, 4
$LN2@vector@7:
	mov	eax, edi
	pop	edi
	pop	esi
	pop	ebx
	pop	ebp
	ret	4
$LN3@vector@7:
	call	??1OGRLinearRing@@UAE@XZ		; OGRLinearRing::~OGRLinearRing
	test	bl, 1
	je	SHORT $LN1@vector@7
	push	esi
	call	??3@YAXPAX@Z				; operator delete
	add	esp, 4
$LN1@vector@7:
	mov	eax, esi
	pop	esi
	pop	ebx
	pop	ebp
	ret	4
??_EOGRLinearRing@@UAEPAXI@Z ENDP			; OGRLinearRing::`vector deleting destructor'
_TEXT	ENDS
PUBLIC	??_7OGRSurface@@6B@				; OGRSurface::`vftable'
PUBLIC	??0OGRSurface@@QAE@XZ				; OGRSurface::OGRSurface
PUBLIC	??_R4OGRSurface@@6B@				; OGRSurface::`RTTI Complete Object Locator'
PUBLIC	??_R0?AVOGRSurface@@@8				; OGRSurface `RTTI Type Descriptor'
PUBLIC	??_R3OGRSurface@@8				; OGRSurface::`RTTI Class Hierarchy Descriptor'
PUBLIC	??_R2OGRSurface@@8				; OGRSurface::`RTTI Base Class Array'
PUBLIC	??_R1A@?0A@EA@OGRSurface@@8			; OGRSurface::`RTTI Base Class Descriptor at (0,-1,0,64)'
PUBLIC	??_EOGRSurface@@UAEPAXI@Z			; OGRSurface::`vector deleting destructor'
EXTRN	??0OGRGeometry@@QAE@XZ:PROC			; OGRGeometry::OGRGeometry
;	COMDAT ??_R1A@?0A@EA@OGRSurface@@8
rdata$r	SEGMENT
??_R1A@?0A@EA@OGRSurface@@8 DD FLAT:??_R0?AVOGRSurface@@@8 ; OGRSurface::`RTTI Base Class Descriptor at (0,-1,0,64)'
	DD	01H
	DD	00H
	DD	0ffffffffH
	DD	00H
	DD	040H
	DD	FLAT:??_R3OGRSurface@@8
rdata$r	ENDS
;	COMDAT ??_R2OGRSurface@@8
rdata$r	SEGMENT
??_R2OGRSurface@@8 DD FLAT:??_R1A@?0A@EA@OGRSurface@@8	; OGRSurface::`RTTI Base Class Array'
	DD	FLAT:??_R1A@?0A@EA@OGRGeometry@@8
rdata$r	ENDS
;	COMDAT ??_R3OGRSurface@@8
rdata$r	SEGMENT
??_R3OGRSurface@@8 DD 00H				; OGRSurface::`RTTI Class Hierarchy Descriptor'
	DD	00H
	DD	02H
	DD	FLAT:??_R2OGRSurface@@8
rdata$r	ENDS
;	COMDAT ??_R0?AVOGRSurface@@@8
_DATA	SEGMENT
??_R0?AVOGRSurface@@@8 DD FLAT:??_7type_info@@6B@	; OGRSurface `RTTI Type Descriptor'
	DD	00H
	DB	'.?AVOGRSurface@@', 00H
_DATA	ENDS
;	COMDAT ??_R4OGRSurface@@6B@
rdata$r	SEGMENT
??_R4OGRSurface@@6B@ DD 00H				; OGRSurface::`RTTI Complete Object Locator'
	DD	00H
	DD	00H
	DD	FLAT:??_R0?AVOGRSurface@@@8
	DD	FLAT:??_R3OGRSurface@@8
rdata$r	ENDS
;	COMDAT ??_7OGRSurface@@6B@
CONST	SEGMENT
??_7OGRSurface@@6B@ DD FLAT:??_R4OGRSurface@@6B@	; OGRSurface::`vftable'
	DD	FLAT:??_EOGRSurface@@UAEPAXI@Z
	DD	FLAT:__purecall
	DD	FLAT:?getCoordinateDimension@OGRGeometry@@UBEHXZ
	DD	FLAT:__purecall
	DD	FLAT:?IsValid@OGRGeometry@@UBEHXZ
	DD	FLAT:?IsSimple@OGRGeometry@@UBEHXZ
	DD	FLAT:?IsRing@OGRGeometry@@UBEHXZ
	DD	FLAT:__purecall
	DD	FLAT:__purecall
	DD	FLAT:__purecall
	DD	FLAT:__purecall
	DD	FLAT:__purecall
	DD	FLAT:__purecall
	DD	FLAT:__purecall
	DD	FLAT:__purecall
	DD	FLAT:__purecall
	DD	FLAT:__purecall
	DD	FLAT:__purecall
	DD	FLAT:?dumpReadable@OGRGeometry@@UBEXPAU_iobuf@@PBDPAPAD@Z
	DD	FLAT:__purecall
	DD	FLAT:?exportToGML@OGRGeometry@@UBEPADPBQBD@Z
	DD	FLAT:?exportToKML@OGRGeometry@@UBEPADXZ
	DD	FLAT:?exportToJson@OGRGeometry@@UBEPADXZ
	DD	FLAT:?exportToGEOS@OGRGeometry@@UBEPAUGEOSGeom_t@@XZ
	DD	FLAT:?closeRings@OGRGeometry@@UAEXXZ
	DD	FLAT:?setCoordinateDimension@OGRGeometry@@UAEXH@Z
	DD	FLAT:__purecall
	DD	FLAT:?segmentize@OGRGeometry@@UAEXN@Z
	DD	FLAT:?Intersects@OGRGeometry@@UBEHPAV1@@Z
	DD	FLAT:__purecall
	DD	FLAT:?Disjoint@OGRGeometry@@UBEHPBV1@@Z
	DD	FLAT:?Touches@OGRGeometry@@UBEHPBV1@@Z
	DD	FLAT:?Crosses@OGRGeometry@@UBEHPBV1@@Z
	DD	FLAT:?Within@OGRGeometry@@UBEHPBV1@@Z
	DD	FLAT:?Contains@OGRGeometry@@UBEHPBV1@@Z
	DD	FLAT:?Overlaps@OGRGeometry@@UBEHPBV1@@Z
	DD	FLAT:?Boundary@OGRGeometry@@UBEPAV1@XZ
	DD	FLAT:?Distance@OGRGeometry@@UBENPBV1@@Z
	DD	FLAT:?ConvexHull@OGRGeometry@@UBEPAV1@XZ
	DD	FLAT:?Buffer@OGRGeometry@@UBEPAV1@NH@Z
	DD	FLAT:?Intersection@OGRGeometry@@UBEPAV1@PBV1@@Z
	DD	FLAT:?Union@OGRGeometry@@UBEPAV1@PBV1@@Z
	DD	FLAT:?UnionCascaded@OGRGeometry@@UBEPAV1@XZ
	DD	FLAT:?Difference@OGRGeometry@@UBEPAV1@PBV1@@Z
	DD	FLAT:?SymDifference@OGRGeometry@@UBEPAV1@PBV1@@Z
	DD	FLAT:?Centroid@OGRGeometry@@UBEHPAVOGRPoint@@@Z
	DD	FLAT:?Simplify@OGRGeometry@@UBEPAV1@N@Z
	DD	FLAT:?Polygonize@OGRGeometry@@UBEPAV1@XZ
	DD	FLAT:?SymmetricDifference@OGRGeometry@@UBEPAV1@PBV1@@Z
	DD	FLAT:?getBoundary@OGRGeometry@@UBEPAV1@XZ
	DD	FLAT:?swapXY@OGRGeometry@@UAEXXZ
	DD	FLAT:__purecall
	DD	FLAT:__purecall
; Function compile flags: /Ogtp
CONST	ENDS
;	COMDAT ??0OGRSurface@@QAE@XZ
_TEXT	SEGMENT
??0OGRSurface@@QAE@XZ PROC				; OGRSurface::OGRSurface, COMDAT
; _this$ = ecx
	push	esi
	mov	esi, ecx
	call	??0OGRGeometry@@QAE@XZ			; OGRGeometry::OGRGeometry
	mov	DWORD PTR [esi], OFFSET ??_7OGRSurface@@6B@
	mov	eax, esi
	pop	esi
	ret	0
??0OGRSurface@@QAE@XZ ENDP				; OGRSurface::OGRSurface
_TEXT	ENDS
PUBLIC	??1OGRSurface@@UAE@XZ				; OGRSurface::~OGRSurface
; Function compile flags: /Ogtp
;	COMDAT ??1OGRSurface@@UAE@XZ
_TEXT	SEGMENT
??1OGRSurface@@UAE@XZ PROC				; OGRSurface::~OGRSurface, COMDAT
; _this$ = ecx
	jmp	??1OGRGeometry@@UAE@XZ			; OGRGeometry::~OGRGeometry
??1OGRSurface@@UAE@XZ ENDP				; OGRSurface::~OGRSurface
_TEXT	ENDS
PUBLIC	??0OGRSurface@@QAE@ABV0@@Z			; OGRSurface::OGRSurface
; Function compile flags: /Ogtp
;	COMDAT ??0OGRSurface@@QAE@ABV0@@Z
_TEXT	SEGMENT
___that$ = 8						; size = 4
??0OGRSurface@@QAE@ABV0@@Z PROC				; OGRSurface::OGRSurface, COMDAT
; _this$ = ecx
	push	ebp
	mov	ebp, esp
	mov	eax, ecx
	mov	ecx, DWORD PTR ___that$[ebp]
	mov	DWORD PTR [eax], OFFSET ??_7OGRGeometry@@6B@
	mov	edx, DWORD PTR [ecx+4]
	mov	DWORD PTR [eax+4], edx
	mov	ecx, DWORD PTR [ecx+8]
	mov	DWORD PTR [eax+8], ecx
	mov	DWORD PTR [eax], OFFSET ??_7OGRSurface@@6B@
	pop	ebp
	ret	4
??0OGRSurface@@QAE@ABV0@@Z ENDP				; OGRSurface::OGRSurface
_TEXT	ENDS
PUBLIC	??4OGRSurface@@QAEAAV0@ABV0@@Z			; OGRSurface::operator=
; Function compile flags: /Ogtp
;	COMDAT ??4OGRSurface@@QAEAAV0@ABV0@@Z
_TEXT	SEGMENT
___that$ = 8						; size = 4
??4OGRSurface@@QAEAAV0@ABV0@@Z PROC			; OGRSurface::operator=, COMDAT
; _this$ = ecx
	push	ebp
	mov	ebp, esp
	mov	eax, ecx
	mov	ecx, DWORD PTR ___that$[ebp]
	mov	edx, DWORD PTR [ecx+4]
	mov	DWORD PTR [eax+4], edx
	mov	ecx, DWORD PTR [ecx+8]
	mov	DWORD PTR [eax+8], ecx
	pop	ebp
	ret	4
??4OGRSurface@@QAEAAV0@ABV0@@Z ENDP			; OGRSurface::operator=
_TEXT	ENDS
PUBLIC	??_GOGRSurface@@UAEPAXI@Z			; OGRSurface::`scalar deleting destructor'
; Function compile flags: /Ogtp
;	COMDAT ??_GOGRSurface@@UAEPAXI@Z
_TEXT	SEGMENT
___flags$ = 8						; size = 4
??_GOGRSurface@@UAEPAXI@Z PROC				; OGRSurface::`scalar deleting destructor', COMDAT
; _this$ = ecx
	push	ebp
	mov	ebp, esp
	push	esi
	mov	esi, ecx
	call	??1OGRGeometry@@UAE@XZ			; OGRGeometry::~OGRGeometry
	test	BYTE PTR ___flags$[ebp], 1
	je	SHORT $LN7@scalar@8
	push	esi
	call	??3@YAXPAX@Z				; operator delete
	add	esp, 4
$LN7@scalar@8:
	mov	eax, esi
	pop	esi
	pop	ebp
	ret	4
??_GOGRSurface@@UAEPAXI@Z ENDP				; OGRSurface::`scalar deleting destructor'
; Function compile flags: /Ogtp
_TEXT	ENDS
;	COMDAT ??_EOGRSurface@@UAEPAXI@Z
_TEXT	SEGMENT
___flags$ = 8						; size = 4
??_EOGRSurface@@UAEPAXI@Z PROC				; OGRSurface::`vector deleting destructor', COMDAT
; _this$ = ecx
	push	ebp
	mov	ebp, esp
	push	ebx
	mov	bl, BYTE PTR ___flags$[ebp]
	push	esi
	mov	esi, ecx
	test	bl, 2
	je	SHORT $LN3@vector@8
	mov	eax, DWORD PTR [esi-4]
	push	edi
	push	OFFSET ??1OGRSurface@@UAE@XZ
	lea	edi, DWORD PTR [esi-4]
	push	eax
	push	12					; 0000000cH
	push	esi
	call	??_M@YGXPAXIHP6EX0@Z@Z
	test	bl, 1
	je	SHORT $LN2@vector@8
	push	edi
	call	??_V@YAXPAX@Z				; operator delete[]
	add	esp, 4
$LN2@vector@8:
	mov	eax, edi
	pop	edi
	pop	esi
	pop	ebx
	pop	ebp
	ret	4
$LN3@vector@8:
	call	??1OGRGeometry@@UAE@XZ			; OGRGeometry::~OGRGeometry
	test	bl, 1
	je	SHORT $LN1@vector@8
	push	esi
	call	??3@YAXPAX@Z				; operator delete
	add	esp, 4
$LN1@vector@8:
	mov	eax, esi
	pop	esi
	pop	ebx
	pop	ebp
	ret	4
??_EOGRSurface@@UAEPAXI@Z ENDP				; OGRSurface::`vector deleting destructor'
_TEXT	ENDS
PUBLIC	??_7OGRPolygon@@6B@				; OGRPolygon::`vftable'
PUBLIC	??0OGRPolygon@@QAE@ABV0@@Z			; OGRPolygon::OGRPolygon
PUBLIC	??_R4OGRPolygon@@6B@				; OGRPolygon::`RTTI Complete Object Locator'
PUBLIC	??_R0?AVOGRPolygon@@@8				; OGRPolygon `RTTI Type Descriptor'
PUBLIC	??_R3OGRPolygon@@8				; OGRPolygon::`RTTI Class Hierarchy Descriptor'
PUBLIC	??_R2OGRPolygon@@8				; OGRPolygon::`RTTI Base Class Array'
PUBLIC	??_R1A@?0A@EA@OGRPolygon@@8			; OGRPolygon::`RTTI Base Class Descriptor at (0,-1,0,64)'
PUBLIC	??_EOGRPolygon@@UAEPAXI@Z			; OGRPolygon::`vector deleting destructor'
EXTRN	?getDimension@OGRPolygon@@UBEHXZ:PROC		; OGRPolygon::getDimension
EXTRN	?IsEmpty@OGRPolygon@@UBEHXZ:PROC		; OGRPolygon::IsEmpty
EXTRN	?empty@OGRPolygon@@UAEXXZ:PROC			; OGRPolygon::empty
EXTRN	?clone@OGRPolygon@@UBEPAVOGRGeometry@@XZ:PROC	; OGRPolygon::clone
EXTRN	?getEnvelope@OGRPolygon@@UBEXPAVOGREnvelope3D@@@Z:PROC ; OGRPolygon::getEnvelope
EXTRN	?getEnvelope@OGRPolygon@@UBEXPAVOGREnvelope@@@Z:PROC ; OGRPolygon::getEnvelope
EXTRN	?WkbSize@OGRPolygon@@UBEHXZ:PROC		; OGRPolygon::WkbSize
EXTRN	?importFromWkb@OGRPolygon@@UAEHPAEH@Z:PROC	; OGRPolygon::importFromWkb
EXTRN	?exportToWkb@OGRPolygon@@UBEHW4OGRwkbByteOrder@@PAE@Z:PROC ; OGRPolygon::exportToWkb
EXTRN	?importFromWkt@OGRPolygon@@UAEHPAPAD@Z:PROC	; OGRPolygon::importFromWkt
EXTRN	?exportToWkt@OGRPolygon@@UBEHPAPAD@Z:PROC	; OGRPolygon::exportToWkt
EXTRN	?getGeometryType@OGRPolygon@@UBE?AW4OGRwkbGeometryType@@XZ:PROC ; OGRPolygon::getGeometryType
EXTRN	?getGeometryName@OGRPolygon@@UBEPBDXZ:PROC	; OGRPolygon::getGeometryName
EXTRN	?flattenTo2D@OGRPolygon@@UAEXXZ:PROC		; OGRPolygon::flattenTo2D
EXTRN	?closeRings@OGRPolygon@@UAEXXZ:PROC		; OGRPolygon::closeRings
EXTRN	?setCoordinateDimension@OGRPolygon@@UAEXH@Z:PROC ; OGRPolygon::setCoordinateDimension
EXTRN	?transform@OGRPolygon@@UAEHPAVOGRCoordinateTransformation@@@Z:PROC ; OGRPolygon::transform
EXTRN	?segmentize@OGRPolygon@@UAEXN@Z:PROC		; OGRPolygon::segmentize
EXTRN	?Equals@OGRPolygon@@UBEHPAVOGRGeometry@@@Z:PROC	; OGRPolygon::Equals
EXTRN	?swapXY@OGRPolygon@@UAEXXZ:PROC			; OGRPolygon::swapXY
EXTRN	?get_Area@OGRPolygon@@UBENXZ:PROC		; OGRPolygon::get_Area
EXTRN	?PointOnSurface@OGRPolygon@@UBEHPAVOGRPoint@@@Z:PROC ; OGRPolygon::PointOnSurface
;	COMDAT ??_R1A@?0A@EA@OGRPolygon@@8
rdata$r	SEGMENT
??_R1A@?0A@EA@OGRPolygon@@8 DD FLAT:??_R0?AVOGRPolygon@@@8 ; OGRPolygon::`RTTI Base Class Descriptor at (0,-1,0,64)'
	DD	02H
	DD	00H
	DD	0ffffffffH
	DD	00H
	DD	040H
	DD	FLAT:??_R3OGRPolygon@@8
rdata$r	ENDS
;	COMDAT ??_R2OGRPolygon@@8
rdata$r	SEGMENT
??_R2OGRPolygon@@8 DD FLAT:??_R1A@?0A@EA@OGRPolygon@@8	; OGRPolygon::`RTTI Base Class Array'
	DD	FLAT:??_R1A@?0A@EA@OGRSurface@@8
	DD	FLAT:??_R1A@?0A@EA@OGRGeometry@@8
rdata$r	ENDS
;	COMDAT ??_R3OGRPolygon@@8
rdata$r	SEGMENT
??_R3OGRPolygon@@8 DD 00H				; OGRPolygon::`RTTI Class Hierarchy Descriptor'
	DD	00H
	DD	03H
	DD	FLAT:??_R2OGRPolygon@@8
rdata$r	ENDS
;	COMDAT ??_R0?AVOGRPolygon@@@8
_DATA	SEGMENT
??_R0?AVOGRPolygon@@@8 DD FLAT:??_7type_info@@6B@	; OGRPolygon `RTTI Type Descriptor'
	DD	00H
	DB	'.?AVOGRPolygon@@', 00H
_DATA	ENDS
;	COMDAT ??_R4OGRPolygon@@6B@
rdata$r	SEGMENT
??_R4OGRPolygon@@6B@ DD 00H				; OGRPolygon::`RTTI Complete Object Locator'
	DD	00H
	DD	00H
	DD	FLAT:??_R0?AVOGRPolygon@@@8
	DD	FLAT:??_R3OGRPolygon@@8
rdata$r	ENDS
;	COMDAT ??_7OGRPolygon@@6B@
CONST	SEGMENT
??_7OGRPolygon@@6B@ DD FLAT:??_R4OGRPolygon@@6B@	; OGRPolygon::`vftable'
	DD	FLAT:??_EOGRPolygon@@UAEPAXI@Z
	DD	FLAT:?getDimension@OGRPolygon@@UBEHXZ
	DD	FLAT:?getCoordinateDimension@OGRGeometry@@UBEHXZ
	DD	FLAT:?IsEmpty@OGRPolygon@@UBEHXZ
	DD	FLAT:?IsValid@OGRGeometry@@UBEHXZ
	DD	FLAT:?IsSimple@OGRGeometry@@UBEHXZ
	DD	FLAT:?IsRing@OGRGeometry@@UBEHXZ
	DD	FLAT:?empty@OGRPolygon@@UAEXXZ
	DD	FLAT:?clone@OGRPolygon@@UBEPAVOGRGeometry@@XZ
	DD	FLAT:?getEnvelope@OGRPolygon@@UBEXPAVOGREnvelope3D@@@Z
	DD	FLAT:?getEnvelope@OGRPolygon@@UBEXPAVOGREnvelope@@@Z
	DD	FLAT:?WkbSize@OGRPolygon@@UBEHXZ
	DD	FLAT:?importFromWkb@OGRPolygon@@UAEHPAEH@Z
	DD	FLAT:?exportToWkb@OGRPolygon@@UBEHW4OGRwkbByteOrder@@PAE@Z
	DD	FLAT:?importFromWkt@OGRPolygon@@UAEHPAPAD@Z
	DD	FLAT:?exportToWkt@OGRPolygon@@UBEHPAPAD@Z
	DD	FLAT:?getGeometryType@OGRPolygon@@UBE?AW4OGRwkbGeometryType@@XZ
	DD	FLAT:?getGeometryName@OGRPolygon@@UBEPBDXZ
	DD	FLAT:?dumpReadable@OGRGeometry@@UBEXPAU_iobuf@@PBDPAPAD@Z
	DD	FLAT:?flattenTo2D@OGRPolygon@@UAEXXZ
	DD	FLAT:?exportToGML@OGRGeometry@@UBEPADPBQBD@Z
	DD	FLAT:?exportToKML@OGRGeometry@@UBEPADXZ
	DD	FLAT:?exportToJson@OGRGeometry@@UBEPADXZ
	DD	FLAT:?exportToGEOS@OGRGeometry@@UBEPAUGEOSGeom_t@@XZ
	DD	FLAT:?closeRings@OGRPolygon@@UAEXXZ
	DD	FLAT:?setCoordinateDimension@OGRPolygon@@UAEXH@Z
	DD	FLAT:?transform@OGRPolygon@@UAEHPAVOGRCoordinateTransformation@@@Z
	DD	FLAT:?segmentize@OGRPolygon@@UAEXN@Z
	DD	FLAT:?Intersects@OGRGeometry@@UBEHPAV1@@Z
	DD	FLAT:?Equals@OGRPolygon@@UBEHPAVOGRGeometry@@@Z
	DD	FLAT:?Disjoint@OGRGeometry@@UBEHPBV1@@Z
	DD	FLAT:?Touches@OGRGeometry@@UBEHPBV1@@Z
	DD	FLAT:?Crosses@OGRGeometry@@UBEHPBV1@@Z
	DD	FLAT:?Within@OGRGeometry@@UBEHPBV1@@Z
	DD	FLAT:?Contains@OGRGeometry@@UBEHPBV1@@Z
	DD	FLAT:?Overlaps@OGRGeometry@@UBEHPBV1@@Z
	DD	FLAT:?Boundary@OGRGeometry@@UBEPAV1@XZ
	DD	FLAT:?Distance@OGRGeometry@@UBENPBV1@@Z
	DD	FLAT:?ConvexHull@OGRGeometry@@UBEPAV1@XZ
	DD	FLAT:?Buffer@OGRGeometry@@UBEPAV1@NH@Z
	DD	FLAT:?Intersection@OGRGeometry@@UBEPAV1@PBV1@@Z
	DD	FLAT:?Union@OGRGeometry@@UBEPAV1@PBV1@@Z
	DD	FLAT:?UnionCascaded@OGRGeometry@@UBEPAV1@XZ
	DD	FLAT:?Difference@OGRGeometry@@UBEPAV1@PBV1@@Z
	DD	FLAT:?SymDifference@OGRGeometry@@UBEPAV1@PBV1@@Z
	DD	FLAT:?Centroid@OGRGeometry@@UBEHPAVOGRPoint@@@Z
	DD	FLAT:?Simplify@OGRGeometry@@UBEPAV1@N@Z
	DD	FLAT:?Polygonize@OGRGeometry@@UBEPAV1@XZ
	DD	FLAT:?SymmetricDifference@OGRGeometry@@UBEPAV1@PBV1@@Z
	DD	FLAT:?getBoundary@OGRGeometry@@UBEPAV1@XZ
	DD	FLAT:?swapXY@OGRPolygon@@UAEXXZ
	DD	FLAT:?get_Area@OGRPolygon@@UBENXZ
	DD	FLAT:?PointOnSurface@OGRPolygon@@UBEHPAVOGRPoint@@@Z
; Function compile flags: /Ogtp
CONST	ENDS
;	COMDAT ??0OGRPolygon@@QAE@ABV0@@Z
_TEXT	SEGMENT
___that$ = 8						; size = 4
??0OGRPolygon@@QAE@ABV0@@Z PROC				; OGRPolygon::OGRPolygon, COMDAT
; _this$ = ecx
	push	ebp
	mov	ebp, esp
	mov	eax, ecx
	mov	ecx, DWORD PTR ___that$[ebp]
	mov	DWORD PTR [eax], OFFSET ??_7OGRGeometry@@6B@
	mov	edx, DWORD PTR [ecx+4]
	mov	DWORD PTR [eax+4], edx
	mov	edx, DWORD PTR [ecx+8]
	mov	DWORD PTR [eax+8], edx
	mov	DWORD PTR [eax], OFFSET ??_7OGRPolygon@@6B@
	mov	edx, DWORD PTR [ecx+12]
	mov	DWORD PTR [eax+12], edx
	mov	ecx, DWORD PTR [ecx+16]
	mov	DWORD PTR [eax+16], ecx
	pop	ebp
	ret	4
??0OGRPolygon@@QAE@ABV0@@Z ENDP				; OGRPolygon::OGRPolygon
_TEXT	ENDS
PUBLIC	??4OGRPolygon@@QAEAAV0@ABV0@@Z			; OGRPolygon::operator=
; Function compile flags: /Ogtp
;	COMDAT ??4OGRPolygon@@QAEAAV0@ABV0@@Z
_TEXT	SEGMENT
___that$ = 8						; size = 4
??4OGRPolygon@@QAEAAV0@ABV0@@Z PROC			; OGRPolygon::operator=, COMDAT
; _this$ = ecx
	push	ebp
	mov	ebp, esp
	mov	eax, ecx
	mov	ecx, DWORD PTR ___that$[ebp]
	mov	edx, DWORD PTR [ecx+4]
	mov	DWORD PTR [eax+4], edx
	mov	edx, DWORD PTR [ecx+8]
	mov	DWORD PTR [eax+8], edx
	mov	edx, DWORD PTR [ecx+12]
	mov	DWORD PTR [eax+12], edx
	mov	ecx, DWORD PTR [ecx+16]
	mov	DWORD PTR [eax+16], ecx
	pop	ebp
	ret	4
??4OGRPolygon@@QAEAAV0@ABV0@@Z ENDP			; OGRPolygon::operator=
_TEXT	ENDS
PUBLIC	??_GOGRPolygon@@UAEPAXI@Z			; OGRPolygon::`scalar deleting destructor'
EXTRN	??1OGRPolygon@@UAE@XZ:PROC			; OGRPolygon::~OGRPolygon
; Function compile flags: /Ogtp
;	COMDAT ??_GOGRPolygon@@UAEPAXI@Z
_TEXT	SEGMENT
___flags$ = 8						; size = 4
??_GOGRPolygon@@UAEPAXI@Z PROC				; OGRPolygon::`scalar deleting destructor', COMDAT
; _this$ = ecx
	push	ebp
	mov	ebp, esp
	push	esi
	mov	esi, ecx
	call	??1OGRPolygon@@UAE@XZ			; OGRPolygon::~OGRPolygon
	test	BYTE PTR ___flags$[ebp], 1
	je	SHORT $LN4@scalar@9
	push	esi
	call	??3@YAXPAX@Z				; operator delete
	add	esp, 4
$LN4@scalar@9:
	mov	eax, esi
	pop	esi
	pop	ebp
	ret	4
??_GOGRPolygon@@UAEPAXI@Z ENDP				; OGRPolygon::`scalar deleting destructor'
; Function compile flags: /Ogtp
_TEXT	ENDS
;	COMDAT ??_EOGRPolygon@@UAEPAXI@Z
_TEXT	SEGMENT
___flags$ = 8						; size = 4
??_EOGRPolygon@@UAEPAXI@Z PROC				; OGRPolygon::`vector deleting destructor', COMDAT
; _this$ = ecx
	push	ebp
	mov	ebp, esp
	push	ebx
	mov	bl, BYTE PTR ___flags$[ebp]
	push	esi
	mov	esi, ecx
	test	bl, 2
	je	SHORT $LN3@vector@9
	mov	eax, DWORD PTR [esi-4]
	push	edi
	push	OFFSET ??1OGRPolygon@@UAE@XZ		; OGRPolygon::~OGRPolygon
	lea	edi, DWORD PTR [esi-4]
	push	eax
	push	20					; 00000014H
	push	esi
	call	??_M@YGXPAXIHP6EX0@Z@Z
	test	bl, 1
	je	SHORT $LN2@vector@9
	push	edi
	call	??_V@YAXPAX@Z				; operator delete[]
	add	esp, 4
$LN2@vector@9:
	mov	eax, edi
	pop	edi
	pop	esi
	pop	ebx
	pop	ebp
	ret	4
$LN3@vector@9:
	call	??1OGRPolygon@@UAE@XZ			; OGRPolygon::~OGRPolygon
	test	bl, 1
	je	SHORT $LN1@vector@9
	push	esi
	call	??3@YAXPAX@Z				; operator delete
	add	esp, 4
$LN1@vector@9:
	mov	eax, esi
	pop	esi
	pop	ebx
	pop	ebp
	ret	4
??_EOGRPolygon@@UAEPAXI@Z ENDP				; OGRPolygon::`vector deleting destructor'
_TEXT	ENDS
PUBLIC	??_7OGRGeometryCollection@@6B@			; OGRGeometryCollection::`vftable'
PUBLIC	??0OGRGeometryCollection@@QAE@ABV0@@Z		; OGRGeometryCollection::OGRGeometryCollection
PUBLIC	??_R4OGRGeometryCollection@@6B@			; OGRGeometryCollection::`RTTI Complete Object Locator'
PUBLIC	??_R0?AVOGRGeometryCollection@@@8		; OGRGeometryCollection `RTTI Type Descriptor'
PUBLIC	??_R3OGRGeometryCollection@@8			; OGRGeometryCollection::`RTTI Class Hierarchy Descriptor'
PUBLIC	??_R2OGRGeometryCollection@@8			; OGRGeometryCollection::`RTTI Base Class Array'
PUBLIC	??_R1A@?0A@EA@OGRGeometryCollection@@8		; OGRGeometryCollection::`RTTI Base Class Descriptor at (0,-1,0,64)'
PUBLIC	??_EOGRGeometryCollection@@UAEPAXI@Z		; OGRGeometryCollection::`vector deleting destructor'
EXTRN	?getDimension@OGRGeometryCollection@@UBEHXZ:PROC ; OGRGeometryCollection::getDimension
EXTRN	?IsEmpty@OGRGeometryCollection@@UBEHXZ:PROC	; OGRGeometryCollection::IsEmpty
EXTRN	?empty@OGRGeometryCollection@@UAEXXZ:PROC	; OGRGeometryCollection::empty
EXTRN	?clone@OGRGeometryCollection@@UBEPAVOGRGeometry@@XZ:PROC ; OGRGeometryCollection::clone
EXTRN	?getEnvelope@OGRGeometryCollection@@UBEXPAVOGREnvelope3D@@@Z:PROC ; OGRGeometryCollection::getEnvelope
EXTRN	?getEnvelope@OGRGeometryCollection@@UBEXPAVOGREnvelope@@@Z:PROC ; OGRGeometryCollection::getEnvelope
EXTRN	?WkbSize@OGRGeometryCollection@@UBEHXZ:PROC	; OGRGeometryCollection::WkbSize
EXTRN	?importFromWkb@OGRGeometryCollection@@UAEHPAEH@Z:PROC ; OGRGeometryCollection::importFromWkb
EXTRN	?exportToWkb@OGRGeometryCollection@@UBEHW4OGRwkbByteOrder@@PAE@Z:PROC ; OGRGeometryCollection::exportToWkb
EXTRN	?importFromWkt@OGRGeometryCollection@@UAEHPAPAD@Z:PROC ; OGRGeometryCollection::importFromWkt
EXTRN	?exportToWkt@OGRGeometryCollection@@UBEHPAPAD@Z:PROC ; OGRGeometryCollection::exportToWkt
EXTRN	?getGeometryType@OGRGeometryCollection@@UBE?AW4OGRwkbGeometryType@@XZ:PROC ; OGRGeometryCollection::getGeometryType
EXTRN	?getGeometryName@OGRGeometryCollection@@UBEPBDXZ:PROC ; OGRGeometryCollection::getGeometryName
EXTRN	?flattenTo2D@OGRGeometryCollection@@UAEXXZ:PROC	; OGRGeometryCollection::flattenTo2D
EXTRN	?closeRings@OGRGeometryCollection@@UAEXXZ:PROC	; OGRGeometryCollection::closeRings
EXTRN	?setCoordinateDimension@OGRGeometryCollection@@UAEXH@Z:PROC ; OGRGeometryCollection::setCoordinateDimension
EXTRN	?transform@OGRGeometryCollection@@UAEHPAVOGRCoordinateTransformation@@@Z:PROC ; OGRGeometryCollection::transform
EXTRN	?segmentize@OGRGeometryCollection@@UAEXN@Z:PROC	; OGRGeometryCollection::segmentize
EXTRN	?Equals@OGRGeometryCollection@@UBEHPAVOGRGeometry@@@Z:PROC ; OGRGeometryCollection::Equals
EXTRN	?swapXY@OGRGeometryCollection@@UAEXXZ:PROC	; OGRGeometryCollection::swapXY
EXTRN	?get_Length@OGRGeometryCollection@@UBENXZ:PROC	; OGRGeometryCollection::get_Length
EXTRN	?get_Area@OGRGeometryCollection@@UBENXZ:PROC	; OGRGeometryCollection::get_Area
EXTRN	?addGeometry@OGRGeometryCollection@@UAEHPBVOGRGeometry@@@Z:PROC ; OGRGeometryCollection::addGeometry
EXTRN	?addGeometryDirectly@OGRGeometryCollection@@UAEHPAVOGRGeometry@@@Z:PROC ; OGRGeometryCollection::addGeometryDirectly
EXTRN	?removeGeometry@OGRGeometryCollection@@UAEHHH@Z:PROC ; OGRGeometryCollection::removeGeometry
;	COMDAT ??_R1A@?0A@EA@OGRGeometryCollection@@8
rdata$r	SEGMENT
??_R1A@?0A@EA@OGRGeometryCollection@@8 DD FLAT:??_R0?AVOGRGeometryCollection@@@8 ; OGRGeometryCollection::`RTTI Base Class Descriptor at (0,-1,0,64)'
	DD	01H
	DD	00H
	DD	0ffffffffH
	DD	00H
	DD	040H
	DD	FLAT:??_R3OGRGeometryCollection@@8
rdata$r	ENDS
;	COMDAT ??_R2OGRGeometryCollection@@8
rdata$r	SEGMENT
??_R2OGRGeometryCollection@@8 DD FLAT:??_R1A@?0A@EA@OGRGeometryCollection@@8 ; OGRGeometryCollection::`RTTI Base Class Array'
	DD	FLAT:??_R1A@?0A@EA@OGRGeometry@@8
rdata$r	ENDS
;	COMDAT ??_R3OGRGeometryCollection@@8
rdata$r	SEGMENT
??_R3OGRGeometryCollection@@8 DD 00H			; OGRGeometryCollection::`RTTI Class Hierarchy Descriptor'
	DD	00H
	DD	02H
	DD	FLAT:??_R2OGRGeometryCollection@@8
rdata$r	ENDS
;	COMDAT ??_R0?AVOGRGeometryCollection@@@8
_DATA	SEGMENT
??_R0?AVOGRGeometryCollection@@@8 DD FLAT:??_7type_info@@6B@ ; OGRGeometryCollection `RTTI Type Descriptor'
	DD	00H
	DB	'.?AVOGRGeometryCollection@@', 00H
_DATA	ENDS
;	COMDAT ??_R4OGRGeometryCollection@@6B@
rdata$r	SEGMENT
??_R4OGRGeometryCollection@@6B@ DD 00H			; OGRGeometryCollection::`RTTI Complete Object Locator'
	DD	00H
	DD	00H
	DD	FLAT:??_R0?AVOGRGeometryCollection@@@8
	DD	FLAT:??_R3OGRGeometryCollection@@8
rdata$r	ENDS
;	COMDAT ??_7OGRGeometryCollection@@6B@
CONST	SEGMENT
??_7OGRGeometryCollection@@6B@ DD FLAT:??_R4OGRGeometryCollection@@6B@ ; OGRGeometryCollection::`vftable'
	DD	FLAT:??_EOGRGeometryCollection@@UAEPAXI@Z
	DD	FLAT:?getDimension@OGRGeometryCollection@@UBEHXZ
	DD	FLAT:?getCoordinateDimension@OGRGeometry@@UBEHXZ
	DD	FLAT:?IsEmpty@OGRGeometryCollection@@UBEHXZ
	DD	FLAT:?IsValid@OGRGeometry@@UBEHXZ
	DD	FLAT:?IsSimple@OGRGeometry@@UBEHXZ
	DD	FLAT:?IsRing@OGRGeometry@@UBEHXZ
	DD	FLAT:?empty@OGRGeometryCollection@@UAEXXZ
	DD	FLAT:?clone@OGRGeometryCollection@@UBEPAVOGRGeometry@@XZ
	DD	FLAT:?getEnvelope@OGRGeometryCollection@@UBEXPAVOGREnvelope3D@@@Z
	DD	FLAT:?getEnvelope@OGRGeometryCollection@@UBEXPAVOGREnvelope@@@Z
	DD	FLAT:?WkbSize@OGRGeometryCollection@@UBEHXZ
	DD	FLAT:?importFromWkb@OGRGeometryCollection@@UAEHPAEH@Z
	DD	FLAT:?exportToWkb@OGRGeometryCollection@@UBEHW4OGRwkbByteOrder@@PAE@Z
	DD	FLAT:?importFromWkt@OGRGeometryCollection@@UAEHPAPAD@Z
	DD	FLAT:?exportToWkt@OGRGeometryCollection@@UBEHPAPAD@Z
	DD	FLAT:?getGeometryType@OGRGeometryCollection@@UBE?AW4OGRwkbGeometryType@@XZ
	DD	FLAT:?getGeometryName@OGRGeometryCollection@@UBEPBDXZ
	DD	FLAT:?dumpReadable@OGRGeometry@@UBEXPAU_iobuf@@PBDPAPAD@Z
	DD	FLAT:?flattenTo2D@OGRGeometryCollection@@UAEXXZ
	DD	FLAT:?exportToGML@OGRGeometry@@UBEPADPBQBD@Z
	DD	FLAT:?exportToKML@OGRGeometry@@UBEPADXZ
	DD	FLAT:?exportToJson@OGRGeometry@@UBEPADXZ
	DD	FLAT:?exportToGEOS@OGRGeometry@@UBEPAUGEOSGeom_t@@XZ
	DD	FLAT:?closeRings@OGRGeometryCollection@@UAEXXZ
	DD	FLAT:?setCoordinateDimension@OGRGeometryCollection@@UAEXH@Z
	DD	FLAT:?transform@OGRGeometryCollection@@UAEHPAVOGRCoordinateTransformation@@@Z
	DD	FLAT:?segmentize@OGRGeometryCollection@@UAEXN@Z
	DD	FLAT:?Intersects@OGRGeometry@@UBEHPAV1@@Z
	DD	FLAT:?Equals@OGRGeometryCollection@@UBEHPAVOGRGeometry@@@Z
	DD	FLAT:?Disjoint@OGRGeometry@@UBEHPBV1@@Z
	DD	FLAT:?Touches@OGRGeometry@@UBEHPBV1@@Z
	DD	FLAT:?Crosses@OGRGeometry@@UBEHPBV1@@Z
	DD	FLAT:?Within@OGRGeometry@@UBEHPBV1@@Z
	DD	FLAT:?Contains@OGRGeometry@@UBEHPBV1@@Z
	DD	FLAT:?Overlaps@OGRGeometry@@UBEHPBV1@@Z
	DD	FLAT:?Boundary@OGRGeometry@@UBEPAV1@XZ
	DD	FLAT:?Distance@OGRGeometry@@UBENPBV1@@Z
	DD	FLAT:?ConvexHull@OGRGeometry@@UBEPAV1@XZ
	DD	FLAT:?Buffer@OGRGeometry@@UBEPAV1@NH@Z
	DD	FLAT:?Intersection@OGRGeometry@@UBEPAV1@PBV1@@Z
	DD	FLAT:?Union@OGRGeometry@@UBEPAV1@PBV1@@Z
	DD	FLAT:?UnionCascaded@OGRGeometry@@UBEPAV1@XZ
	DD	FLAT:?Difference@OGRGeometry@@UBEPAV1@PBV1@@Z
	DD	FLAT:?SymDifference@OGRGeometry@@UBEPAV1@PBV1@@Z
	DD	FLAT:?Centroid@OGRGeometry@@UBEHPAVOGRPoint@@@Z
	DD	FLAT:?Simplify@OGRGeometry@@UBEPAV1@N@Z
	DD	FLAT:?Polygonize@OGRGeometry@@UBEPAV1@XZ
	DD	FLAT:?SymmetricDifference@OGRGeometry@@UBEPAV1@PBV1@@Z
	DD	FLAT:?getBoundary@OGRGeometry@@UBEPAV1@XZ
	DD	FLAT:?swapXY@OGRGeometryCollection@@UAEXXZ
	DD	FLAT:?get_Length@OGRGeometryCollection@@UBENXZ
	DD	FLAT:?get_Area@OGRGeometryCollection@@UBENXZ
	DD	FLAT:?addGeometry@OGRGeometryCollection@@UAEHPBVOGRGeometry@@@Z
	DD	FLAT:?addGeometryDirectly@OGRGeometryCollection@@UAEHPAVOGRGeometry@@@Z
	DD	FLAT:?removeGeometry@OGRGeometryCollection@@UAEHHH@Z
; Function compile flags: /Ogtp
CONST	ENDS
;	COMDAT ??0OGRGeometryCollection@@QAE@ABV0@@Z
_TEXT	SEGMENT
___that$ = 8						; size = 4
??0OGRGeometryCollection@@QAE@ABV0@@Z PROC		; OGRGeometryCollection::OGRGeometryCollection, COMDAT
; _this$ = ecx
	push	ebp
	mov	ebp, esp
	mov	eax, ecx
	mov	ecx, DWORD PTR ___that$[ebp]
	mov	DWORD PTR [eax], OFFSET ??_7OGRGeometry@@6B@
	mov	edx, DWORD PTR [ecx+4]
	mov	DWORD PTR [eax+4], edx
	mov	edx, DWORD PTR [ecx+8]
	mov	DWORD PTR [eax+8], edx
	mov	DWORD PTR [eax], OFFSET ??_7OGRGeometryCollection@@6B@
	mov	edx, DWORD PTR [ecx+12]
	mov	DWORD PTR [eax+12], edx
	mov	ecx, DWORD PTR [ecx+16]
	mov	DWORD PTR [eax+16], ecx
	pop	ebp
	ret	4
??0OGRGeometryCollection@@QAE@ABV0@@Z ENDP		; OGRGeometryCollection::OGRGeometryCollection
_TEXT	ENDS
PUBLIC	??4OGRGeometryCollection@@QAEAAV0@ABV0@@Z	; OGRGeometryCollection::operator=
; Function compile flags: /Ogtp
;	COMDAT ??4OGRGeometryCollection@@QAEAAV0@ABV0@@Z
_TEXT	SEGMENT
___that$ = 8						; size = 4
??4OGRGeometryCollection@@QAEAAV0@ABV0@@Z PROC		; OGRGeometryCollection::operator=, COMDAT
; _this$ = ecx
	push	ebp
	mov	ebp, esp
	mov	eax, ecx
	mov	ecx, DWORD PTR ___that$[ebp]
	mov	edx, DWORD PTR [ecx+4]
	mov	DWORD PTR [eax+4], edx
	mov	edx, DWORD PTR [ecx+8]
	mov	DWORD PTR [eax+8], edx
	mov	edx, DWORD PTR [ecx+12]
	mov	DWORD PTR [eax+12], edx
	mov	ecx, DWORD PTR [ecx+16]
	mov	DWORD PTR [eax+16], ecx
	pop	ebp
	ret	4
??4OGRGeometryCollection@@QAEAAV0@ABV0@@Z ENDP		; OGRGeometryCollection::operator=
_TEXT	ENDS
PUBLIC	??_GOGRGeometryCollection@@UAEPAXI@Z		; OGRGeometryCollection::`scalar deleting destructor'
EXTRN	??1OGRGeometryCollection@@UAE@XZ:PROC		; OGRGeometryCollection::~OGRGeometryCollection
; Function compile flags: /Ogtp
;	COMDAT ??_GOGRGeometryCollection@@UAEPAXI@Z
_TEXT	SEGMENT
___flags$ = 8						; size = 4
??_GOGRGeometryCollection@@UAEPAXI@Z PROC		; OGRGeometryCollection::`scalar deleting destructor', COMDAT
; _this$ = ecx
	push	ebp
	mov	ebp, esp
	push	esi
	mov	esi, ecx
	call	??1OGRGeometryCollection@@UAE@XZ	; OGRGeometryCollection::~OGRGeometryCollection
	test	BYTE PTR ___flags$[ebp], 1
	je	SHORT $LN4@scalar@10
	push	esi
	call	??3@YAXPAX@Z				; operator delete
	add	esp, 4
$LN4@scalar@10:
	mov	eax, esi
	pop	esi
	pop	ebp
	ret	4
??_GOGRGeometryCollection@@UAEPAXI@Z ENDP		; OGRGeometryCollection::`scalar deleting destructor'
; Function compile flags: /Ogtp
_TEXT	ENDS
;	COMDAT ??_EOGRGeometryCollection@@UAEPAXI@Z
_TEXT	SEGMENT
___flags$ = 8						; size = 4
??_EOGRGeometryCollection@@UAEPAXI@Z PROC		; OGRGeometryCollection::`vector deleting destructor', COMDAT
; _this$ = ecx
	push	ebp
	mov	ebp, esp
	push	ebx
	mov	bl, BYTE PTR ___flags$[ebp]
	push	esi
	mov	esi, ecx
	test	bl, 2
	je	SHORT $LN3@vector@10
	mov	eax, DWORD PTR [esi-4]
	push	edi
	push	OFFSET ??1OGRGeometryCollection@@UAE@XZ	; OGRGeometryCollection::~OGRGeometryCollection
	lea	edi, DWORD PTR [esi-4]
	push	eax
	push	20					; 00000014H
	push	esi
	call	??_M@YGXPAXIHP6EX0@Z@Z
	test	bl, 1
	je	SHORT $LN2@vector@10
	push	edi
	call	??_V@YAXPAX@Z				; operator delete[]
	add	esp, 4
$LN2@vector@10:
	mov	eax, edi
	pop	edi
	pop	esi
	pop	ebx
	pop	ebp
	ret	4
$LN3@vector@10:
	call	??1OGRGeometryCollection@@UAE@XZ	; OGRGeometryCollection::~OGRGeometryCollection
	test	bl, 1
	je	SHORT $LN1@vector@10
	push	esi
	call	??3@YAXPAX@Z				; operator delete
	add	esp, 4
$LN1@vector@10:
	mov	eax, esi
	pop	esi
	pop	ebx
	pop	ebp
	ret	4
??_EOGRGeometryCollection@@UAEPAXI@Z ENDP		; OGRGeometryCollection::`vector deleting destructor'
_TEXT	ENDS
PUBLIC	??1OGRMultiPolygon@@UAE@XZ			; OGRMultiPolygon::~OGRMultiPolygon
; Function compile flags: /Ogtp
;	COMDAT ??1OGRMultiPolygon@@UAE@XZ
_TEXT	SEGMENT
??1OGRMultiPolygon@@UAE@XZ PROC				; OGRMultiPolygon::~OGRMultiPolygon, COMDAT
; _this$ = ecx
	jmp	??1OGRGeometryCollection@@UAE@XZ	; OGRGeometryCollection::~OGRGeometryCollection
??1OGRMultiPolygon@@UAE@XZ ENDP				; OGRMultiPolygon::~OGRMultiPolygon
_TEXT	ENDS
PUBLIC	??_7OGRMultiPolygon@@6B@			; OGRMultiPolygon::`vftable'
PUBLIC	??0OGRMultiPolygon@@QAE@ABV0@@Z			; OGRMultiPolygon::OGRMultiPolygon
PUBLIC	??_R4OGRMultiPolygon@@6B@			; OGRMultiPolygon::`RTTI Complete Object Locator'
PUBLIC	??_R0?AVOGRMultiPolygon@@@8			; OGRMultiPolygon `RTTI Type Descriptor'
PUBLIC	??_R3OGRMultiPolygon@@8				; OGRMultiPolygon::`RTTI Class Hierarchy Descriptor'
PUBLIC	??_R2OGRMultiPolygon@@8				; OGRMultiPolygon::`RTTI Base Class Array'
PUBLIC	??_R1A@?0A@EA@OGRMultiPolygon@@8		; OGRMultiPolygon::`RTTI Base Class Descriptor at (0,-1,0,64)'
PUBLIC	??_EOGRMultiPolygon@@UAEPAXI@Z			; OGRMultiPolygon::`vector deleting destructor'
EXTRN	?clone@OGRMultiPolygon@@UBEPAVOGRGeometry@@XZ:PROC ; OGRMultiPolygon::clone
EXTRN	?importFromWkt@OGRMultiPolygon@@UAEHPAPAD@Z:PROC ; OGRMultiPolygon::importFromWkt
EXTRN	?exportToWkt@OGRMultiPolygon@@UBEHPAPAD@Z:PROC	; OGRMultiPolygon::exportToWkt
EXTRN	?getGeometryType@OGRMultiPolygon@@UBE?AW4OGRwkbGeometryType@@XZ:PROC ; OGRMultiPolygon::getGeometryType
EXTRN	?getGeometryName@OGRMultiPolygon@@UBEPBDXZ:PROC	; OGRMultiPolygon::getGeometryName
EXTRN	?get_Area@OGRMultiPolygon@@UBENXZ:PROC		; OGRMultiPolygon::get_Area
EXTRN	?addGeometryDirectly@OGRMultiPolygon@@UAEHPAVOGRGeometry@@@Z:PROC ; OGRMultiPolygon::addGeometryDirectly
;	COMDAT ??_R1A@?0A@EA@OGRMultiPolygon@@8
rdata$r	SEGMENT
??_R1A@?0A@EA@OGRMultiPolygon@@8 DD FLAT:??_R0?AVOGRMultiPolygon@@@8 ; OGRMultiPolygon::`RTTI Base Class Descriptor at (0,-1,0,64)'
	DD	02H
	DD	00H
	DD	0ffffffffH
	DD	00H
	DD	040H
	DD	FLAT:??_R3OGRMultiPolygon@@8
rdata$r	ENDS
;	COMDAT ??_R2OGRMultiPolygon@@8
rdata$r	SEGMENT
??_R2OGRMultiPolygon@@8 DD FLAT:??_R1A@?0A@EA@OGRMultiPolygon@@8 ; OGRMultiPolygon::`RTTI Base Class Array'
	DD	FLAT:??_R1A@?0A@EA@OGRGeometryCollection@@8
	DD	FLAT:??_R1A@?0A@EA@OGRGeometry@@8
rdata$r	ENDS
;	COMDAT ??_R3OGRMultiPolygon@@8
rdata$r	SEGMENT
??_R3OGRMultiPolygon@@8 DD 00H				; OGRMultiPolygon::`RTTI Class Hierarchy Descriptor'
	DD	00H
	DD	03H
	DD	FLAT:??_R2OGRMultiPolygon@@8
rdata$r	ENDS
;	COMDAT ??_R0?AVOGRMultiPolygon@@@8
_DATA	SEGMENT
??_R0?AVOGRMultiPolygon@@@8 DD FLAT:??_7type_info@@6B@	; OGRMultiPolygon `RTTI Type Descriptor'
	DD	00H
	DB	'.?AVOGRMultiPolygon@@', 00H
_DATA	ENDS
;	COMDAT ??_R4OGRMultiPolygon@@6B@
rdata$r	SEGMENT
??_R4OGRMultiPolygon@@6B@ DD 00H			; OGRMultiPolygon::`RTTI Complete Object Locator'
	DD	00H
	DD	00H
	DD	FLAT:??_R0?AVOGRMultiPolygon@@@8
	DD	FLAT:??_R3OGRMultiPolygon@@8
rdata$r	ENDS
;	COMDAT ??_7OGRMultiPolygon@@6B@
CONST	SEGMENT
??_7OGRMultiPolygon@@6B@ DD FLAT:??_R4OGRMultiPolygon@@6B@ ; OGRMultiPolygon::`vftable'
	DD	FLAT:??_EOGRMultiPolygon@@UAEPAXI@Z
	DD	FLAT:?getDimension@OGRGeometryCollection@@UBEHXZ
	DD	FLAT:?getCoordinateDimension@OGRGeometry@@UBEHXZ
	DD	FLAT:?IsEmpty@OGRGeometryCollection@@UBEHXZ
	DD	FLAT:?IsValid@OGRGeometry@@UBEHXZ
	DD	FLAT:?IsSimple@OGRGeometry@@UBEHXZ
	DD	FLAT:?IsRing@OGRGeometry@@UBEHXZ
	DD	FLAT:?empty@OGRGeometryCollection@@UAEXXZ
	DD	FLAT:?clone@OGRMultiPolygon@@UBEPAVOGRGeometry@@XZ
	DD	FLAT:?getEnvelope@OGRGeometryCollection@@UBEXPAVOGREnvelope3D@@@Z
	DD	FLAT:?getEnvelope@OGRGeometryCollection@@UBEXPAVOGREnvelope@@@Z
	DD	FLAT:?WkbSize@OGRGeometryCollection@@UBEHXZ
	DD	FLAT:?importFromWkb@OGRGeometryCollection@@UAEHPAEH@Z
	DD	FLAT:?exportToWkb@OGRGeometryCollection@@UBEHW4OGRwkbByteOrder@@PAE@Z
	DD	FLAT:?importFromWkt@OGRMultiPolygon@@UAEHPAPAD@Z
	DD	FLAT:?exportToWkt@OGRMultiPolygon@@UBEHPAPAD@Z
	DD	FLAT:?getGeometryType@OGRMultiPolygon@@UBE?AW4OGRwkbGeometryType@@XZ
	DD	FLAT:?getGeometryName@OGRMultiPolygon@@UBEPBDXZ
	DD	FLAT:?dumpReadable@OGRGeometry@@UBEXPAU_iobuf@@PBDPAPAD@Z
	DD	FLAT:?flattenTo2D@OGRGeometryCollection@@UAEXXZ
	DD	FLAT:?exportToGML@OGRGeometry@@UBEPADPBQBD@Z
	DD	FLAT:?exportToKML@OGRGeometry@@UBEPADXZ
	DD	FLAT:?exportToJson@OGRGeometry@@UBEPADXZ
	DD	FLAT:?exportToGEOS@OGRGeometry@@UBEPAUGEOSGeom_t@@XZ
	DD	FLAT:?closeRings@OGRGeometryCollection@@UAEXXZ
	DD	FLAT:?setCoordinateDimension@OGRGeometryCollection@@UAEXH@Z
	DD	FLAT:?transform@OGRGeometryCollection@@UAEHPAVOGRCoordinateTransformation@@@Z
	DD	FLAT:?segmentize@OGRGeometryCollection@@UAEXN@Z
	DD	FLAT:?Intersects@OGRGeometry@@UBEHPAV1@@Z
	DD	FLAT:?Equals@OGRGeometryCollection@@UBEHPAVOGRGeometry@@@Z
	DD	FLAT:?Disjoint@OGRGeometry@@UBEHPBV1@@Z
	DD	FLAT:?Touches@OGRGeometry@@UBEHPBV1@@Z
	DD	FLAT:?Crosses@OGRGeometry@@UBEHPBV1@@Z
	DD	FLAT:?Within@OGRGeometry@@UBEHPBV1@@Z
	DD	FLAT:?Contains@OGRGeometry@@UBEHPBV1@@Z
	DD	FLAT:?Overlaps@OGRGeometry@@UBEHPBV1@@Z
	DD	FLAT:?Boundary@OGRGeometry@@UBEPAV1@XZ
	DD	FLAT:?Distance@OGRGeometry@@UBENPBV1@@Z
	DD	FLAT:?ConvexHull@OGRGeometry@@UBEPAV1@XZ
	DD	FLAT:?Buffer@OGRGeometry@@UBEPAV1@NH@Z
	DD	FLAT:?Intersection@OGRGeometry@@UBEPAV1@PBV1@@Z
	DD	FLAT:?Union@OGRGeometry@@UBEPAV1@PBV1@@Z
	DD	FLAT:?UnionCascaded@OGRGeometry@@UBEPAV1@XZ
	DD	FLAT:?Difference@OGRGeometry@@UBEPAV1@PBV1@@Z
	DD	FLAT:?SymDifference@OGRGeometry@@UBEPAV1@PBV1@@Z
	DD	FLAT:?Centroid@OGRGeometry@@UBEHPAVOGRPoint@@@Z
	DD	FLAT:?Simplify@OGRGeometry@@UBEPAV1@N@Z
	DD	FLAT:?Polygonize@OGRGeometry@@UBEPAV1@XZ
	DD	FLAT:?SymmetricDifference@OGRGeometry@@UBEPAV1@PBV1@@Z
	DD	FLAT:?getBoundary@OGRGeometry@@UBEPAV1@XZ
	DD	FLAT:?swapXY@OGRGeometryCollection@@UAEXXZ
	DD	FLAT:?get_Length@OGRGeometryCollection@@UBENXZ
	DD	FLAT:?get_Area@OGRMultiPolygon@@UBENXZ
	DD	FLAT:?addGeometry@OGRGeometryCollection@@UAEHPBVOGRGeometry@@@Z
	DD	FLAT:?addGeometryDirectly@OGRMultiPolygon@@UAEHPAVOGRGeometry@@@Z
	DD	FLAT:?removeGeometry@OGRGeometryCollection@@UAEHHH@Z
; Function compile flags: /Ogtp
CONST	ENDS
;	COMDAT ??0OGRMultiPolygon@@QAE@ABV0@@Z
_TEXT	SEGMENT
___that$ = 8						; size = 4
??0OGRMultiPolygon@@QAE@ABV0@@Z PROC			; OGRMultiPolygon::OGRMultiPolygon, COMDAT
; _this$ = ecx
	push	ebp
	mov	ebp, esp
	mov	eax, ecx
	mov	ecx, DWORD PTR ___that$[ebp]
	mov	DWORD PTR [eax], OFFSET ??_7OGRGeometry@@6B@
	mov	edx, DWORD PTR [ecx+4]
	mov	DWORD PTR [eax+4], edx
	mov	edx, DWORD PTR [ecx+8]
	mov	DWORD PTR [eax], OFFSET ??_7OGRGeometryCollection@@6B@
	mov	DWORD PTR [eax+8], edx
	mov	edx, DWORD PTR [ecx+12]
	mov	DWORD PTR [eax+12], edx
	mov	ecx, DWORD PTR [ecx+16]
	mov	DWORD PTR [eax+16], ecx
	mov	DWORD PTR [eax], OFFSET ??_7OGRMultiPolygon@@6B@
	pop	ebp
	ret	4
??0OGRMultiPolygon@@QAE@ABV0@@Z ENDP			; OGRMultiPolygon::OGRMultiPolygon
_TEXT	ENDS
PUBLIC	??4OGRMultiPolygon@@QAEAAV0@ABV0@@Z		; OGRMultiPolygon::operator=
; Function compile flags: /Ogtp
;	COMDAT ??4OGRMultiPolygon@@QAEAAV0@ABV0@@Z
_TEXT	SEGMENT
___that$ = 8						; size = 4
??4OGRMultiPolygon@@QAEAAV0@ABV0@@Z PROC		; OGRMultiPolygon::operator=, COMDAT
; _this$ = ecx
	push	ebp
	mov	ebp, esp
	mov	eax, ecx
	mov	ecx, DWORD PTR ___that$[ebp]
	mov	edx, DWORD PTR [ecx+4]
	mov	DWORD PTR [eax+4], edx
	mov	edx, DWORD PTR [ecx+8]
	mov	DWORD PTR [eax+8], edx
	mov	edx, DWORD PTR [ecx+12]
	mov	DWORD PTR [eax+12], edx
	mov	ecx, DWORD PTR [ecx+16]
	mov	DWORD PTR [eax+16], ecx
	pop	ebp
	ret	4
??4OGRMultiPolygon@@QAEAAV0@ABV0@@Z ENDP		; OGRMultiPolygon::operator=
_TEXT	ENDS
PUBLIC	??_GOGRMultiPolygon@@UAEPAXI@Z			; OGRMultiPolygon::`scalar deleting destructor'
; Function compile flags: /Ogtp
;	COMDAT ??_GOGRMultiPolygon@@UAEPAXI@Z
_TEXT	SEGMENT
___flags$ = 8						; size = 4
??_GOGRMultiPolygon@@UAEPAXI@Z PROC			; OGRMultiPolygon::`scalar deleting destructor', COMDAT
; _this$ = ecx
	push	ebp
	mov	ebp, esp
	push	esi
	mov	esi, ecx
	call	??1OGRGeometryCollection@@UAE@XZ	; OGRGeometryCollection::~OGRGeometryCollection
	test	BYTE PTR ___flags$[ebp], 1
	je	SHORT $LN7@scalar@11
	push	esi
	call	??3@YAXPAX@Z				; operator delete
	add	esp, 4
$LN7@scalar@11:
	mov	eax, esi
	pop	esi
	pop	ebp
	ret	4
??_GOGRMultiPolygon@@UAEPAXI@Z ENDP			; OGRMultiPolygon::`scalar deleting destructor'
; Function compile flags: /Ogtp
_TEXT	ENDS
;	COMDAT ??_EOGRMultiPolygon@@UAEPAXI@Z
_TEXT	SEGMENT
___flags$ = 8						; size = 4
??_EOGRMultiPolygon@@UAEPAXI@Z PROC			; OGRMultiPolygon::`vector deleting destructor', COMDAT
; _this$ = ecx
	push	ebp
	mov	ebp, esp
	push	ebx
	mov	bl, BYTE PTR ___flags$[ebp]
	push	esi
	mov	esi, ecx
	test	bl, 2
	je	SHORT $LN3@vector@11
	mov	eax, DWORD PTR [esi-4]
	push	edi
	push	OFFSET ??1OGRMultiPolygon@@UAE@XZ
	lea	edi, DWORD PTR [esi-4]
	push	eax
	push	20					; 00000014H
	push	esi
	call	??_M@YGXPAXIHP6EX0@Z@Z
	test	bl, 1
	je	SHORT $LN2@vector@11
	push	edi
	call	??_V@YAXPAX@Z				; operator delete[]
	add	esp, 4
$LN2@vector@11:
	mov	eax, edi
	pop	edi
	pop	esi
	pop	ebx
	pop	ebp
	ret	4
$LN3@vector@11:
	call	??1OGRGeometryCollection@@UAE@XZ	; OGRGeometryCollection::~OGRGeometryCollection
	test	bl, 1
	je	SHORT $LN1@vector@11
	push	esi
	call	??3@YAXPAX@Z				; operator delete
	add	esp, 4
$LN1@vector@11:
	mov	eax, esi
	pop	esi
	pop	ebx
	pop	ebp
	ret	4
??_EOGRMultiPolygon@@UAEPAXI@Z ENDP			; OGRMultiPolygon::`vector deleting destructor'
_TEXT	ENDS
PUBLIC	??1OGRMultiPoint@@UAE@XZ			; OGRMultiPoint::~OGRMultiPoint
; Function compile flags: /Ogtp
;	COMDAT ??1OGRMultiPoint@@UAE@XZ
_TEXT	SEGMENT
??1OGRMultiPoint@@UAE@XZ PROC				; OGRMultiPoint::~OGRMultiPoint, COMDAT
; _this$ = ecx
	jmp	??1OGRGeometryCollection@@UAE@XZ	; OGRGeometryCollection::~OGRGeometryCollection
??1OGRMultiPoint@@UAE@XZ ENDP				; OGRMultiPoint::~OGRMultiPoint
_TEXT	ENDS
PUBLIC	??_7OGRMultiPoint@@6B@				; OGRMultiPoint::`vftable'
PUBLIC	??0OGRMultiPoint@@QAE@ABV0@@Z			; OGRMultiPoint::OGRMultiPoint
PUBLIC	??_R4OGRMultiPoint@@6B@				; OGRMultiPoint::`RTTI Complete Object Locator'
PUBLIC	??_R0?AVOGRMultiPoint@@@8			; OGRMultiPoint `RTTI Type Descriptor'
PUBLIC	??_R3OGRMultiPoint@@8				; OGRMultiPoint::`RTTI Class Hierarchy Descriptor'
PUBLIC	??_R2OGRMultiPoint@@8				; OGRMultiPoint::`RTTI Base Class Array'
PUBLIC	??_R1A@?0A@EA@OGRMultiPoint@@8			; OGRMultiPoint::`RTTI Base Class Descriptor at (0,-1,0,64)'
PUBLIC	??_EOGRMultiPoint@@UAEPAXI@Z			; OGRMultiPoint::`vector deleting destructor'
EXTRN	?clone@OGRMultiPoint@@UBEPAVOGRGeometry@@XZ:PROC ; OGRMultiPoint::clone
EXTRN	?importFromWkt@OGRMultiPoint@@UAEHPAPAD@Z:PROC	; OGRMultiPoint::importFromWkt
EXTRN	?exportToWkt@OGRMultiPoint@@UBEHPAPAD@Z:PROC	; OGRMultiPoint::exportToWkt
EXTRN	?getGeometryType@OGRMultiPoint@@UBE?AW4OGRwkbGeometryType@@XZ:PROC ; OGRMultiPoint::getGeometryType
EXTRN	?getGeometryName@OGRMultiPoint@@UBEPBDXZ:PROC	; OGRMultiPoint::getGeometryName
EXTRN	?addGeometryDirectly@OGRMultiPoint@@UAEHPAVOGRGeometry@@@Z:PROC ; OGRMultiPoint::addGeometryDirectly
;	COMDAT ??_R1A@?0A@EA@OGRMultiPoint@@8
rdata$r	SEGMENT
??_R1A@?0A@EA@OGRMultiPoint@@8 DD FLAT:??_R0?AVOGRMultiPoint@@@8 ; OGRMultiPoint::`RTTI Base Class Descriptor at (0,-1,0,64)'
	DD	02H
	DD	00H
	DD	0ffffffffH
	DD	00H
	DD	040H
	DD	FLAT:??_R3OGRMultiPoint@@8
rdata$r	ENDS
;	COMDAT ??_R2OGRMultiPoint@@8
rdata$r	SEGMENT
??_R2OGRMultiPoint@@8 DD FLAT:??_R1A@?0A@EA@OGRMultiPoint@@8 ; OGRMultiPoint::`RTTI Base Class Array'
	DD	FLAT:??_R1A@?0A@EA@OGRGeometryCollection@@8
	DD	FLAT:??_R1A@?0A@EA@OGRGeometry@@8
rdata$r	ENDS
;	COMDAT ??_R3OGRMultiPoint@@8
rdata$r	SEGMENT
??_R3OGRMultiPoint@@8 DD 00H				; OGRMultiPoint::`RTTI Class Hierarchy Descriptor'
	DD	00H
	DD	03H
	DD	FLAT:??_R2OGRMultiPoint@@8
rdata$r	ENDS
;	COMDAT ??_R0?AVOGRMultiPoint@@@8
_DATA	SEGMENT
??_R0?AVOGRMultiPoint@@@8 DD FLAT:??_7type_info@@6B@	; OGRMultiPoint `RTTI Type Descriptor'
	DD	00H
	DB	'.?AVOGRMultiPoint@@', 00H
_DATA	ENDS
;	COMDAT ??_R4OGRMultiPoint@@6B@
rdata$r	SEGMENT
??_R4OGRMultiPoint@@6B@ DD 00H				; OGRMultiPoint::`RTTI Complete Object Locator'
	DD	00H
	DD	00H
	DD	FLAT:??_R0?AVOGRMultiPoint@@@8
	DD	FLAT:??_R3OGRMultiPoint@@8
rdata$r	ENDS
;	COMDAT ??_7OGRMultiPoint@@6B@
CONST	SEGMENT
??_7OGRMultiPoint@@6B@ DD FLAT:??_R4OGRMultiPoint@@6B@	; OGRMultiPoint::`vftable'
	DD	FLAT:??_EOGRMultiPoint@@UAEPAXI@Z
	DD	FLAT:?getDimension@OGRGeometryCollection@@UBEHXZ
	DD	FLAT:?getCoordinateDimension@OGRGeometry@@UBEHXZ
	DD	FLAT:?IsEmpty@OGRGeometryCollection@@UBEHXZ
	DD	FLAT:?IsValid@OGRGeometry@@UBEHXZ
	DD	FLAT:?IsSimple@OGRGeometry@@UBEHXZ
	DD	FLAT:?IsRing@OGRGeometry@@UBEHXZ
	DD	FLAT:?empty@OGRGeometryCollection@@UAEXXZ
	DD	FLAT:?clone@OGRMultiPoint@@UBEPAVOGRGeometry@@XZ
	DD	FLAT:?getEnvelope@OGRGeometryCollection@@UBEXPAVOGREnvelope3D@@@Z
	DD	FLAT:?getEnvelope@OGRGeometryCollection@@UBEXPAVOGREnvelope@@@Z
	DD	FLAT:?WkbSize@OGRGeometryCollection@@UBEHXZ
	DD	FLAT:?importFromWkb@OGRGeometryCollection@@UAEHPAEH@Z
	DD	FLAT:?exportToWkb@OGRGeometryCollection@@UBEHW4OGRwkbByteOrder@@PAE@Z
	DD	FLAT:?importFromWkt@OGRMultiPoint@@UAEHPAPAD@Z
	DD	FLAT:?exportToWkt@OGRMultiPoint@@UBEHPAPAD@Z
	DD	FLAT:?getGeometryType@OGRMultiPoint@@UBE?AW4OGRwkbGeometryType@@XZ
	DD	FLAT:?getGeometryName@OGRMultiPoint@@UBEPBDXZ
	DD	FLAT:?dumpReadable@OGRGeometry@@UBEXPAU_iobuf@@PBDPAPAD@Z
	DD	FLAT:?flattenTo2D@OGRGeometryCollection@@UAEXXZ
	DD	FLAT:?exportToGML@OGRGeometry@@UBEPADPBQBD@Z
	DD	FLAT:?exportToKML@OGRGeometry@@UBEPADXZ
	DD	FLAT:?exportToJson@OGRGeometry@@UBEPADXZ
	DD	FLAT:?exportToGEOS@OGRGeometry@@UBEPAUGEOSGeom_t@@XZ
	DD	FLAT:?closeRings@OGRGeometryCollection@@UAEXXZ
	DD	FLAT:?setCoordinateDimension@OGRGeometryCollection@@UAEXH@Z
	DD	FLAT:?transform@OGRGeometryCollection@@UAEHPAVOGRCoordinateTransformation@@@Z
	DD	FLAT:?segmentize@OGRGeometryCollection@@UAEXN@Z
	DD	FLAT:?Intersects@OGRGeometry@@UBEHPAV1@@Z
	DD	FLAT:?Equals@OGRGeometryCollection@@UBEHPAVOGRGeometry@@@Z
	DD	FLAT:?Disjoint@OGRGeometry@@UBEHPBV1@@Z
	DD	FLAT:?Touches@OGRGeometry@@UBEHPBV1@@Z
	DD	FLAT:?Crosses@OGRGeometry@@UBEHPBV1@@Z
	DD	FLAT:?Within@OGRGeometry@@UBEHPBV1@@Z
	DD	FLAT:?Contains@OGRGeometry@@UBEHPBV1@@Z
	DD	FLAT:?Overlaps@OGRGeometry@@UBEHPBV1@@Z
	DD	FLAT:?Boundary@OGRGeometry@@UBEPAV1@XZ
	DD	FLAT:?Distance@OGRGeometry@@UBENPBV1@@Z
	DD	FLAT:?ConvexHull@OGRGeometry@@UBEPAV1@XZ
	DD	FLAT:?Buffer@OGRGeometry@@UBEPAV1@NH@Z
	DD	FLAT:?Intersection@OGRGeometry@@UBEPAV1@PBV1@@Z
	DD	FLAT:?Union@OGRGeometry@@UBEPAV1@PBV1@@Z
	DD	FLAT:?UnionCascaded@OGRGeometry@@UBEPAV1@XZ
	DD	FLAT:?Difference@OGRGeometry@@UBEPAV1@PBV1@@Z
	DD	FLAT:?SymDifference@OGRGeometry@@UBEPAV1@PBV1@@Z
	DD	FLAT:?Centroid@OGRGeometry@@UBEHPAVOGRPoint@@@Z
	DD	FLAT:?Simplify@OGRGeometry@@UBEPAV1@N@Z
	DD	FLAT:?Polygonize@OGRGeometry@@UBEPAV1@XZ
	DD	FLAT:?SymmetricDifference@OGRGeometry@@UBEPAV1@PBV1@@Z
	DD	FLAT:?getBoundary@OGRGeometry@@UBEPAV1@XZ
	DD	FLAT:?swapXY@OGRGeometryCollection@@UAEXXZ
	DD	FLAT:?get_Length@OGRGeometryCollection@@UBENXZ
	DD	FLAT:?get_Area@OGRGeometryCollection@@UBENXZ
	DD	FLAT:?addGeometry@OGRGeometryCollection@@UAEHPBVOGRGeometry@@@Z
	DD	FLAT:?addGeometryDirectly@OGRMultiPoint@@UAEHPAVOGRGeometry@@@Z
	DD	FLAT:?removeGeometry@OGRGeometryCollection@@UAEHHH@Z
; Function compile flags: /Ogtp
CONST	ENDS
;	COMDAT ??0OGRMultiPoint@@QAE@ABV0@@Z
_TEXT	SEGMENT
___that$ = 8						; size = 4
??0OGRMultiPoint@@QAE@ABV0@@Z PROC			; OGRMultiPoint::OGRMultiPoint, COMDAT
; _this$ = ecx
	push	ebp
	mov	ebp, esp
	mov	eax, ecx
	mov	ecx, DWORD PTR ___that$[ebp]
	mov	DWORD PTR [eax], OFFSET ??_7OGRGeometry@@6B@
	mov	edx, DWORD PTR [ecx+4]
	mov	DWORD PTR [eax+4], edx
	mov	edx, DWORD PTR [ecx+8]
	mov	DWORD PTR [eax], OFFSET ??_7OGRGeometryCollection@@6B@
	mov	DWORD PTR [eax+8], edx
	mov	edx, DWORD PTR [ecx+12]
	mov	DWORD PTR [eax+12], edx
	mov	ecx, DWORD PTR [ecx+16]
	mov	DWORD PTR [eax+16], ecx
	mov	DWORD PTR [eax], OFFSET ??_7OGRMultiPoint@@6B@
	pop	ebp
	ret	4
??0OGRMultiPoint@@QAE@ABV0@@Z ENDP			; OGRMultiPoint::OGRMultiPoint
_TEXT	ENDS
PUBLIC	??4OGRMultiPoint@@QAEAAV0@ABV0@@Z		; OGRMultiPoint::operator=
; Function compile flags: /Ogtp
;	COMDAT ??4OGRMultiPoint@@QAEAAV0@ABV0@@Z
_TEXT	SEGMENT
___that$ = 8						; size = 4
??4OGRMultiPoint@@QAEAAV0@ABV0@@Z PROC			; OGRMultiPoint::operator=, COMDAT
; _this$ = ecx
	push	ebp
	mov	ebp, esp
	mov	eax, ecx
	mov	ecx, DWORD PTR ___that$[ebp]
	mov	edx, DWORD PTR [ecx+4]
	mov	DWORD PTR [eax+4], edx
	mov	edx, DWORD PTR [ecx+8]
	mov	DWORD PTR [eax+8], edx
	mov	edx, DWORD PTR [ecx+12]
	mov	DWORD PTR [eax+12], edx
	mov	ecx, DWORD PTR [ecx+16]
	mov	DWORD PTR [eax+16], ecx
	pop	ebp
	ret	4
??4OGRMultiPoint@@QAEAAV0@ABV0@@Z ENDP			; OGRMultiPoint::operator=
_TEXT	ENDS
PUBLIC	??_GOGRMultiPoint@@UAEPAXI@Z			; OGRMultiPoint::`scalar deleting destructor'
; Function compile flags: /Ogtp
;	COMDAT ??_GOGRMultiPoint@@UAEPAXI@Z
_TEXT	SEGMENT
___flags$ = 8						; size = 4
??_GOGRMultiPoint@@UAEPAXI@Z PROC			; OGRMultiPoint::`scalar deleting destructor', COMDAT
; _this$ = ecx
	push	ebp
	mov	ebp, esp
	push	esi
	mov	esi, ecx
	call	??1OGRGeometryCollection@@UAE@XZ	; OGRGeometryCollection::~OGRGeometryCollection
	test	BYTE PTR ___flags$[ebp], 1
	je	SHORT $LN7@scalar@12
	push	esi
	call	??3@YAXPAX@Z				; operator delete
	add	esp, 4
$LN7@scalar@12:
	mov	eax, esi
	pop	esi
	pop	ebp
	ret	4
??_GOGRMultiPoint@@UAEPAXI@Z ENDP			; OGRMultiPoint::`scalar deleting destructor'
; Function compile flags: /Ogtp
_TEXT	ENDS
;	COMDAT ??_EOGRMultiPoint@@UAEPAXI@Z
_TEXT	SEGMENT
___flags$ = 8						; size = 4
??_EOGRMultiPoint@@UAEPAXI@Z PROC			; OGRMultiPoint::`vector deleting destructor', COMDAT
; _this$ = ecx
	push	ebp
	mov	ebp, esp
	push	ebx
	mov	bl, BYTE PTR ___flags$[ebp]
	push	esi
	mov	esi, ecx
	test	bl, 2
	je	SHORT $LN3@vector@12
	mov	eax, DWORD PTR [esi-4]
	push	edi
	push	OFFSET ??1OGRMultiPoint@@UAE@XZ
	lea	edi, DWORD PTR [esi-4]
	push	eax
	push	20					; 00000014H
	push	esi
	call	??_M@YGXPAXIHP6EX0@Z@Z
	test	bl, 1
	je	SHORT $LN2@vector@12
	push	edi
	call	??_V@YAXPAX@Z				; operator delete[]
	add	esp, 4
$LN2@vector@12:
	mov	eax, edi
	pop	edi
	pop	esi
	pop	ebx
	pop	ebp
	ret	4
$LN3@vector@12:
	call	??1OGRGeometryCollection@@UAE@XZ	; OGRGeometryCollection::~OGRGeometryCollection
	test	bl, 1
	je	SHORT $LN1@vector@12
	push	esi
	call	??3@YAXPAX@Z				; operator delete
	add	esp, 4
$LN1@vector@12:
	mov	eax, esi
	pop	esi
	pop	ebx
	pop	ebp
	ret	4
??_EOGRMultiPoint@@UAEPAXI@Z ENDP			; OGRMultiPoint::`vector deleting destructor'
_TEXT	ENDS
PUBLIC	??_7OGRMultiLineString@@6B@			; OGRMultiLineString::`vftable'
PUBLIC	??0OGRMultiLineString@@QAE@ABV0@@Z		; OGRMultiLineString::OGRMultiLineString
PUBLIC	??_R4OGRMultiLineString@@6B@			; OGRMultiLineString::`RTTI Complete Object Locator'
PUBLIC	??_R0?AVOGRMultiLineString@@@8			; OGRMultiLineString `RTTI Type Descriptor'
PUBLIC	??_R3OGRMultiLineString@@8			; OGRMultiLineString::`RTTI Class Hierarchy Descriptor'
PUBLIC	??_R2OGRMultiLineString@@8			; OGRMultiLineString::`RTTI Base Class Array'
PUBLIC	??_R1A@?0A@EA@OGRMultiLineString@@8		; OGRMultiLineString::`RTTI Base Class Descriptor at (0,-1,0,64)'
PUBLIC	??_EOGRMultiLineString@@UAEPAXI@Z		; OGRMultiLineString::`vector deleting destructor'
EXTRN	?clone@OGRMultiLineString@@UBEPAVOGRGeometry@@XZ:PROC ; OGRMultiLineString::clone
EXTRN	?importFromWkt@OGRMultiLineString@@UAEHPAPAD@Z:PROC ; OGRMultiLineString::importFromWkt
EXTRN	?exportToWkt@OGRMultiLineString@@UBEHPAPAD@Z:PROC ; OGRMultiLineString::exportToWkt
EXTRN	?getGeometryType@OGRMultiLineString@@UBE?AW4OGRwkbGeometryType@@XZ:PROC ; OGRMultiLineString::getGeometryType
EXTRN	?getGeometryName@OGRMultiLineString@@UBEPBDXZ:PROC ; OGRMultiLineString::getGeometryName
EXTRN	?addGeometryDirectly@OGRMultiLineString@@UAEHPAVOGRGeometry@@@Z:PROC ; OGRMultiLineString::addGeometryDirectly
;	COMDAT ??_R1A@?0A@EA@OGRMultiLineString@@8
rdata$r	SEGMENT
??_R1A@?0A@EA@OGRMultiLineString@@8 DD FLAT:??_R0?AVOGRMultiLineString@@@8 ; OGRMultiLineString::`RTTI Base Class Descriptor at (0,-1,0,64)'
	DD	02H
	DD	00H
	DD	0ffffffffH
	DD	00H
	DD	040H
	DD	FLAT:??_R3OGRMultiLineString@@8
rdata$r	ENDS
;	COMDAT ??_R2OGRMultiLineString@@8
rdata$r	SEGMENT
??_R2OGRMultiLineString@@8 DD FLAT:??_R1A@?0A@EA@OGRMultiLineString@@8 ; OGRMultiLineString::`RTTI Base Class Array'
	DD	FLAT:??_R1A@?0A@EA@OGRGeometryCollection@@8
	DD	FLAT:??_R1A@?0A@EA@OGRGeometry@@8
rdata$r	ENDS
;	COMDAT ??_R3OGRMultiLineString@@8
rdata$r	SEGMENT
??_R3OGRMultiLineString@@8 DD 00H			; OGRMultiLineString::`RTTI Class Hierarchy Descriptor'
	DD	00H
	DD	03H
	DD	FLAT:??_R2OGRMultiLineString@@8
rdata$r	ENDS
;	COMDAT ??_R0?AVOGRMultiLineString@@@8
_DATA	SEGMENT
??_R0?AVOGRMultiLineString@@@8 DD FLAT:??_7type_info@@6B@ ; OGRMultiLineString `RTTI Type Descriptor'
	DD	00H
	DB	'.?AVOGRMultiLineString@@', 00H
_DATA	ENDS
;	COMDAT ??_R4OGRMultiLineString@@6B@
rdata$r	SEGMENT
??_R4OGRMultiLineString@@6B@ DD 00H			; OGRMultiLineString::`RTTI Complete Object Locator'
	DD	00H
	DD	00H
	DD	FLAT:??_R0?AVOGRMultiLineString@@@8
	DD	FLAT:??_R3OGRMultiLineString@@8
rdata$r	ENDS
;	COMDAT ??_7OGRMultiLineString@@6B@
CONST	SEGMENT
??_7OGRMultiLineString@@6B@ DD FLAT:??_R4OGRMultiLineString@@6B@ ; OGRMultiLineString::`vftable'
	DD	FLAT:??_EOGRMultiLineString@@UAEPAXI@Z
	DD	FLAT:?getDimension@OGRGeometryCollection@@UBEHXZ
	DD	FLAT:?getCoordinateDimension@OGRGeometry@@UBEHXZ
	DD	FLAT:?IsEmpty@OGRGeometryCollection@@UBEHXZ
	DD	FLAT:?IsValid@OGRGeometry@@UBEHXZ
	DD	FLAT:?IsSimple@OGRGeometry@@UBEHXZ
	DD	FLAT:?IsRing@OGRGeometry@@UBEHXZ
	DD	FLAT:?empty@OGRGeometryCollection@@UAEXXZ
	DD	FLAT:?clone@OGRMultiLineString@@UBEPAVOGRGeometry@@XZ
	DD	FLAT:?getEnvelope@OGRGeometryCollection@@UBEXPAVOGREnvelope3D@@@Z
	DD	FLAT:?getEnvelope@OGRGeometryCollection@@UBEXPAVOGREnvelope@@@Z
	DD	FLAT:?WkbSize@OGRGeometryCollection@@UBEHXZ
	DD	FLAT:?importFromWkb@OGRGeometryCollection@@UAEHPAEH@Z
	DD	FLAT:?exportToWkb@OGRGeometryCollection@@UBEHW4OGRwkbByteOrder@@PAE@Z
	DD	FLAT:?importFromWkt@OGRMultiLineString@@UAEHPAPAD@Z
	DD	FLAT:?exportToWkt@OGRMultiLineString@@UBEHPAPAD@Z
	DD	FLAT:?getGeometryType@OGRMultiLineString@@UBE?AW4OGRwkbGeometryType@@XZ
	DD	FLAT:?getGeometryName@OGRMultiLineString@@UBEPBDXZ
	DD	FLAT:?dumpReadable@OGRGeometry@@UBEXPAU_iobuf@@PBDPAPAD@Z
	DD	FLAT:?flattenTo2D@OGRGeometryCollection@@UAEXXZ
	DD	FLAT:?exportToGML@OGRGeometry@@UBEPADPBQBD@Z
	DD	FLAT:?exportToKML@OGRGeometry@@UBEPADXZ
	DD	FLAT:?exportToJson@OGRGeometry@@UBEPADXZ
	DD	FLAT:?exportToGEOS@OGRGeometry@@UBEPAUGEOSGeom_t@@XZ
	DD	FLAT:?closeRings@OGRGeometryCollection@@UAEXXZ
	DD	FLAT:?setCoordinateDimension@OGRGeometryCollection@@UAEXH@Z
	DD	FLAT:?transform@OGRGeometryCollection@@UAEHPAVOGRCoordinateTransformation@@@Z
	DD	FLAT:?segmentize@OGRGeometryCollection@@UAEXN@Z
	DD	FLAT:?Intersects@OGRGeometry@@UBEHPAV1@@Z
	DD	FLAT:?Equals@OGRGeometryCollection@@UBEHPAVOGRGeometry@@@Z
	DD	FLAT:?Disjoint@OGRGeometry@@UBEHPBV1@@Z
	DD	FLAT:?Touches@OGRGeometry@@UBEHPBV1@@Z
	DD	FLAT:?Crosses@OGRGeometry@@UBEHPBV1@@Z
	DD	FLAT:?Within@OGRGeometry@@UBEHPBV1@@Z
	DD	FLAT:?Contains@OGRGeometry@@UBEHPBV1@@Z
	DD	FLAT:?Overlaps@OGRGeometry@@UBEHPBV1@@Z
	DD	FLAT:?Boundary@OGRGeometry@@UBEPAV1@XZ
	DD	FLAT:?Distance@OGRGeometry@@UBENPBV1@@Z
	DD	FLAT:?ConvexHull@OGRGeometry@@UBEPAV1@XZ
	DD	FLAT:?Buffer@OGRGeometry@@UBEPAV1@NH@Z
	DD	FLAT:?Intersection@OGRGeometry@@UBEPAV1@PBV1@@Z
	DD	FLAT:?Union@OGRGeometry@@UBEPAV1@PBV1@@Z
	DD	FLAT:?UnionCascaded@OGRGeometry@@UBEPAV1@XZ
	DD	FLAT:?Difference@OGRGeometry@@UBEPAV1@PBV1@@Z
	DD	FLAT:?SymDifference@OGRGeometry@@UBEPAV1@PBV1@@Z
	DD	FLAT:?Centroid@OGRGeometry@@UBEHPAVOGRPoint@@@Z
	DD	FLAT:?Simplify@OGRGeometry@@UBEPAV1@N@Z
	DD	FLAT:?Polygonize@OGRGeometry@@UBEPAV1@XZ
	DD	FLAT:?SymmetricDifference@OGRGeometry@@UBEPAV1@PBV1@@Z
	DD	FLAT:?getBoundary@OGRGeometry@@UBEPAV1@XZ
	DD	FLAT:?swapXY@OGRGeometryCollection@@UAEXXZ
	DD	FLAT:?get_Length@OGRGeometryCollection@@UBENXZ
	DD	FLAT:?get_Area@OGRGeometryCollection@@UBENXZ
	DD	FLAT:?addGeometry@OGRGeometryCollection@@UAEHPBVOGRGeometry@@@Z
	DD	FLAT:?addGeometryDirectly@OGRMultiLineString@@UAEHPAVOGRGeometry@@@Z
	DD	FLAT:?removeGeometry@OGRGeometryCollection@@UAEHHH@Z
; Function compile flags: /Ogtp
CONST	ENDS
;	COMDAT ??0OGRMultiLineString@@QAE@ABV0@@Z
_TEXT	SEGMENT
___that$ = 8						; size = 4
??0OGRMultiLineString@@QAE@ABV0@@Z PROC			; OGRMultiLineString::OGRMultiLineString, COMDAT
; _this$ = ecx
	push	ebp
	mov	ebp, esp
	mov	eax, ecx
	mov	ecx, DWORD PTR ___that$[ebp]
	mov	DWORD PTR [eax], OFFSET ??_7OGRGeometry@@6B@
	mov	edx, DWORD PTR [ecx+4]
	mov	DWORD PTR [eax+4], edx
	mov	edx, DWORD PTR [ecx+8]
	mov	DWORD PTR [eax], OFFSET ??_7OGRGeometryCollection@@6B@
	mov	DWORD PTR [eax+8], edx
	mov	edx, DWORD PTR [ecx+12]
	mov	DWORD PTR [eax+12], edx
	mov	ecx, DWORD PTR [ecx+16]
	mov	DWORD PTR [eax+16], ecx
	mov	DWORD PTR [eax], OFFSET ??_7OGRMultiLineString@@6B@
	pop	ebp
	ret	4
??0OGRMultiLineString@@QAE@ABV0@@Z ENDP			; OGRMultiLineString::OGRMultiLineString
_TEXT	ENDS
PUBLIC	??4OGRMultiLineString@@QAEAAV0@ABV0@@Z		; OGRMultiLineString::operator=
; Function compile flags: /Ogtp
;	COMDAT ??4OGRMultiLineString@@QAEAAV0@ABV0@@Z
_TEXT	SEGMENT
___that$ = 8						; size = 4
??4OGRMultiLineString@@QAEAAV0@ABV0@@Z PROC		; OGRMultiLineString::operator=, COMDAT
; _this$ = ecx
	push	ebp
	mov	ebp, esp
	mov	eax, ecx
	mov	ecx, DWORD PTR ___that$[ebp]
	mov	edx, DWORD PTR [ecx+4]
	mov	DWORD PTR [eax+4], edx
	mov	edx, DWORD PTR [ecx+8]
	mov	DWORD PTR [eax+8], edx
	mov	edx, DWORD PTR [ecx+12]
	mov	DWORD PTR [eax+12], edx
	mov	ecx, DWORD PTR [ecx+16]
	mov	DWORD PTR [eax+16], ecx
	pop	ebp
	ret	4
??4OGRMultiLineString@@QAEAAV0@ABV0@@Z ENDP		; OGRMultiLineString::operator=
_TEXT	ENDS
PUBLIC	??_GOGRMultiLineString@@UAEPAXI@Z		; OGRMultiLineString::`scalar deleting destructor'
EXTRN	??1OGRMultiLineString@@UAE@XZ:PROC		; OGRMultiLineString::~OGRMultiLineString
; Function compile flags: /Ogtp
;	COMDAT ??_GOGRMultiLineString@@UAEPAXI@Z
_TEXT	SEGMENT
___flags$ = 8						; size = 4
??_GOGRMultiLineString@@UAEPAXI@Z PROC			; OGRMultiLineString::`scalar deleting destructor', COMDAT
; _this$ = ecx
	push	ebp
	mov	ebp, esp
	push	esi
	mov	esi, ecx
	call	??1OGRMultiLineString@@UAE@XZ		; OGRMultiLineString::~OGRMultiLineString
	test	BYTE PTR ___flags$[ebp], 1
	je	SHORT $LN4@scalar@13
	push	esi
	call	??3@YAXPAX@Z				; operator delete
	add	esp, 4
$LN4@scalar@13:
	mov	eax, esi
	pop	esi
	pop	ebp
	ret	4
??_GOGRMultiLineString@@UAEPAXI@Z ENDP			; OGRMultiLineString::`scalar deleting destructor'
; Function compile flags: /Ogtp
_TEXT	ENDS
;	COMDAT ??_EOGRMultiLineString@@UAEPAXI@Z
_TEXT	SEGMENT
___flags$ = 8						; size = 4
??_EOGRMultiLineString@@UAEPAXI@Z PROC			; OGRMultiLineString::`vector deleting destructor', COMDAT
; _this$ = ecx
	push	ebp
	mov	ebp, esp
	push	ebx
	mov	bl, BYTE PTR ___flags$[ebp]
	push	esi
	mov	esi, ecx
	test	bl, 2
	je	SHORT $LN3@vector@13
	mov	eax, DWORD PTR [esi-4]
	push	edi
	push	OFFSET ??1OGRMultiLineString@@UAE@XZ	; OGRMultiLineString::~OGRMultiLineString
	lea	edi, DWORD PTR [esi-4]
	push	eax
	push	20					; 00000014H
	push	esi
	call	??_M@YGXPAXIHP6EX0@Z@Z
	test	bl, 1
	je	SHORT $LN2@vector@13
	push	edi
	call	??_V@YAXPAX@Z				; operator delete[]
	add	esp, 4
$LN2@vector@13:
	mov	eax, edi
	pop	edi
	pop	esi
	pop	ebx
	pop	ebp
	ret	4
$LN3@vector@13:
	call	??1OGRMultiLineString@@UAE@XZ		; OGRMultiLineString::~OGRMultiLineString
	test	bl, 1
	je	SHORT $LN1@vector@13
	push	esi
	call	??3@YAXPAX@Z				; operator delete
	add	esp, 4
$LN1@vector@13:
	mov	eax, esi
	pop	esi
	pop	ebx
	pop	ebp
	ret	4
??_EOGRMultiLineString@@UAEPAXI@Z ENDP			; OGRMultiLineString::`vector deleting destructor'
_TEXT	ENDS
PUBLIC	??4OGRGeometryFactory@@QAEAAV0@ABV0@@Z		; OGRGeometryFactory::operator=
; Function compile flags: /Ogtp
;	COMDAT ??4OGRGeometryFactory@@QAEAAV0@ABV0@@Z
_TEXT	SEGMENT
___that$ = 8						; size = 4
??4OGRGeometryFactory@@QAEAAV0@ABV0@@Z PROC		; OGRGeometryFactory::operator=, COMDAT
; _this$ = ecx
	mov	eax, ecx
	ret	4
??4OGRGeometryFactory@@QAEAAV0@ABV0@@Z ENDP		; OGRGeometryFactory::operator=
_TEXT	ENDS
PUBLIC	??4?$_String_val@DV?$allocator@D@std@@@std@@QAEAAV01@ABV01@@Z ; std::_String_val<char,std::allocator<char> >::operator=
; Function compile flags: /Ogtp
;	COMDAT ??4?$_String_val@DV?$allocator@D@std@@@std@@QAEAAV01@ABV01@@Z
_TEXT	SEGMENT
___that$ = 8						; size = 4
??4?$_String_val@DV?$allocator@D@std@@@std@@QAEAAV01@ABV01@@Z PROC ; std::_String_val<char,std::allocator<char> >::operator=, COMDAT
; _this$ = ecx
	push	ebp
	mov	ebp, esp
	push	esi
	mov	esi, DWORD PTR ___that$[ebp]
	push	edi
	mov	eax, ecx
	mov	ecx, 7
	mov	edi, eax
	rep movsd
	pop	edi
	pop	esi
	pop	ebp
	ret	4
??4?$_String_val@DV?$allocator@D@std@@@std@@QAEAAV01@ABV01@@Z ENDP ; std::_String_val<char,std::allocator<char> >::operator=
_TEXT	ENDS
PUBLIC	?size@CPLStringList@@QBEHXZ			; CPLStringList::size
EXTRN	?Count@CPLStringList@@QBEHXZ:PROC		; CPLStringList::Count
; Function compile flags: /Ogtp
;	COMDAT ?size@CPLStringList@@QBEHXZ
_TEXT	SEGMENT
?size@CPLStringList@@QBEHXZ PROC			; CPLStringList::size, COMDAT
; _this$ = ecx
; File c:\osgeo4w\include\cpl_string.h
; Line 303
	jmp	?Count@CPLStringList@@QBEHXZ		; CPLStringList::Count
?size@CPLStringList@@QBEHXZ ENDP			; CPLStringList::size
_TEXT	ENDS
PUBLIC	?InsertString@CPLStringList@@QAEAAV1@HPBD@Z	; CPLStringList::InsertString
EXTRN	?InsertStringDirectly@CPLStringList@@QAEAAV1@HPAD@Z:PROC ; CPLStringList::InsertStringDirectly
EXTRN	_CPLStrdup:PROC
; Function compile flags: /Ogtp
;	COMDAT ?InsertString@CPLStringList@@QAEAAV1@HPBD@Z
_TEXT	SEGMENT
_nInsertAtLineNo$ = 8					; size = 4
_pszNewLine$ = 12					; size = 4
?InsertString@CPLStringList@@QAEAAV1@HPBD@Z PROC	; CPLStringList::InsertString, COMDAT
; _this$ = ecx
; Line 310
	push	ebp
	mov	ebp, esp
	mov	eax, DWORD PTR _pszNewLine$[ebp]
	push	esi
	push	eax
	mov	esi, ecx
	call	_CPLStrdup
	mov	ecx, DWORD PTR _nInsertAtLineNo$[ebp]
	add	esp, 4
	push	eax
	push	ecx
	mov	ecx, esi
	call	?InsertStringDirectly@CPLStringList@@QAEAAV1@HPAD@Z ; CPLStringList::InsertStringDirectly
	pop	esi
	pop	ebp
	ret	8
?InsertString@CPLStringList@@QAEAAV1@HPBD@Z ENDP	; CPLStringList::InsertString
_TEXT	ENDS
PUBLIC	?FindString@CPLStringList@@QBEHPBD@Z		; CPLStringList::FindString
EXTRN	_CSLFindString:PROC
; Function compile flags: /Ogtp
;	COMDAT ?FindString@CPLStringList@@QBEHPBD@Z
_TEXT	SEGMENT
_pszTarget$ = 8						; size = 4
?FindString@CPLStringList@@QBEHPBD@Z PROC		; CPLStringList::FindString, COMDAT
; _this$ = ecx
; Line 317
	push	ebp
	mov	ebp, esp
	mov	eax, DWORD PTR _pszTarget$[ebp]
	mov	ecx, DWORD PTR [ecx]
	push	eax
	push	ecx
	call	_CSLFindString
	add	esp, 8
	pop	ebp
	ret	4
?FindString@CPLStringList@@QBEHPBD@Z ENDP		; CPLStringList::FindString
_TEXT	ENDS
PUBLIC	?PartialFindString@CPLStringList@@QBEHPBD@Z	; CPLStringList::PartialFindString
EXTRN	_CSLPartialFindString:PROC
; Function compile flags: /Ogtp
;	COMDAT ?PartialFindString@CPLStringList@@QBEHPBD@Z
_TEXT	SEGMENT
_pszNeedle$ = 8						; size = 4
?PartialFindString@CPLStringList@@QBEHPBD@Z PROC	; CPLStringList::PartialFindString, COMDAT
; _this$ = ecx
; Line 319
	push	ebp
	mov	ebp, esp
	mov	eax, DWORD PTR _pszNeedle$[ebp]
	mov	ecx, DWORD PTR [ecx]
	push	eax
	push	ecx
	call	_CSLPartialFindString
	add	esp, 8
	pop	ebp
	ret	4
?PartialFindString@CPLStringList@@QBEHPBD@Z ENDP	; CPLStringList::PartialFindString
_TEXT	ENDS
PUBLIC	??4CPLStringList@@QAEAAV0@PAPAD@Z		; CPLStringList::operator=
EXTRN	?Assign@CPLStringList@@QAEAAV1@PAPADH@Z:PROC	; CPLStringList::Assign
; Function compile flags: /Ogtp
;	COMDAT ??4CPLStringList@@QAEAAV0@PAPAD@Z
_TEXT	SEGMENT
_papszListIn$ = 8					; size = 4
??4CPLStringList@@QAEAAV0@PAPAD@Z PROC			; CPLStringList::operator=, COMDAT
; _this$ = ecx
; Line 329
	push	ebp
	mov	ebp, esp
	mov	eax, DWORD PTR _papszListIn$[ebp]
	push	1
	push	eax
	call	?Assign@CPLStringList@@QAEAAV1@PAPADH@Z	; CPLStringList::Assign
	pop	ebp
	ret	4
??4CPLStringList@@QAEAAV0@PAPAD@Z ENDP			; CPLStringList::operator=
_TEXT	ENDS
PUBLIC	??ACPLStringList@@QAEPADI@Z			; CPLStringList::operator[]
EXTRN	??ACPLStringList@@QAEPADH@Z:PROC		; CPLStringList::operator[]
; Function compile flags: /Ogtp
;	COMDAT ??ACPLStringList@@QAEPADI@Z
_TEXT	SEGMENT
_i$ = 8							; size = 4
??ACPLStringList@@QAEPADI@Z PROC			; CPLStringList::operator[], COMDAT
; _this$ = ecx
; Line 333
	push	ebp
	mov	ebp, esp
	pop	ebp
	jmp	??ACPLStringList@@QAEPADH@Z		; CPLStringList::operator[]
??ACPLStringList@@QAEPADI@Z ENDP			; CPLStringList::operator[]
_TEXT	ENDS
PUBLIC	??ACPLStringList@@QBEPBDI@Z			; CPLStringList::operator[]
EXTRN	??ACPLStringList@@QBEPBDH@Z:PROC		; CPLStringList::operator[]
; Function compile flags: /Ogtp
;	COMDAT ??ACPLStringList@@QBEPBDI@Z
_TEXT	SEGMENT
_i$ = 8							; size = 4
??ACPLStringList@@QBEPBDI@Z PROC			; CPLStringList::operator[], COMDAT
; _this$ = ecx
; Line 335
	push	ebp
	mov	ebp, esp
	pop	ebp
	jmp	??ACPLStringList@@QBEPBDH@Z		; CPLStringList::operator[]
??ACPLStringList@@QBEPBDI@Z ENDP			; CPLStringList::operator[]
_TEXT	ENDS
PUBLIC	?List@CPLStringList@@QAEPAPADXZ			; CPLStringList::List
; Function compile flags: /Ogtp
;	COMDAT ?List@CPLStringList@@QAEPAPADXZ
_TEXT	SEGMENT
?List@CPLStringList@@QAEPAPADXZ PROC			; CPLStringList::List, COMDAT
; _this$ = ecx
; Line 337
	mov	eax, DWORD PTR [ecx]
	ret	0
?List@CPLStringList@@QAEPAPADXZ ENDP			; CPLStringList::List
_TEXT	ENDS
PUBLIC	?IsSorted@CPLStringList@@QBEHXZ			; CPLStringList::IsSorted
; Function compile flags: /Ogtp
;	COMDAT ?IsSorted@CPLStringList@@QBEHXZ
_TEXT	SEGMENT
?IsSorted@CPLStringList@@QBEHXZ PROC			; CPLStringList::IsSorted, COMDAT
; _this$ = ecx
; Line 341
	mov	eax, DWORD PTR [ecx+16]
	ret	0
?IsSorted@CPLStringList@@QBEHXZ ENDP			; CPLStringList::IsSorted
_TEXT	ENDS
PUBLIC	??BCPLStringList@@QAEPAPADXZ			; CPLStringList::operator char * *
; Function compile flags: /Ogtp
;	COMDAT ??BCPLStringList@@QAEPAPADXZ
_TEXT	SEGMENT
??BCPLStringList@@QAEPAPADXZ PROC			; CPLStringList::operator char * *, COMDAT
; _this$ = ecx
; Line 343
	mov	eax, DWORD PTR [ecx]
	ret	0
??BCPLStringList@@QAEPAPADXZ ENDP			; CPLStringList::operator char * *
_TEXT	ENDS
PUBLIC	?GetDataSetStyleTable@OGRStyleMgr@@QAEPAVOGRStyleTable@@XZ ; OGRStyleMgr::GetDataSetStyleTable
; Function compile flags: /Ogtp
;	COMDAT ?GetDataSetStyleTable@OGRStyleMgr@@QAEPAVOGRStyleTable@@XZ
_TEXT	SEGMENT
?GetDataSetStyleTable@OGRStyleMgr@@QAEPAVOGRStyleTable@@XZ PROC ; OGRStyleMgr::GetDataSetStyleTable, COMDAT
; _this$ = ecx
; File c:\osgeo4w\include\ogr_featurestyle.h
; Line 150
	mov	eax, DWORD PTR [ecx]
	ret	0
?GetDataSetStyleTable@OGRStyleMgr@@QAEPAVOGRStyleTable@@XZ ENDP ; OGRStyleMgr::GetDataSetStyleTable
_TEXT	ENDS
PUBLIC	??4OGRStyleMgr@@QAEAAV0@ABV0@@Z			; OGRStyleMgr::operator=
; Function compile flags: /Ogtp
;	COMDAT ??4OGRStyleMgr@@QAEAAV0@ABV0@@Z
_TEXT	SEGMENT
___that$ = 8						; size = 4
??4OGRStyleMgr@@QAEAAV0@ABV0@@Z PROC			; OGRStyleMgr::operator=, COMDAT
; _this$ = ecx
	push	ebp
	mov	ebp, esp
	mov	eax, ecx
	mov	ecx, DWORD PTR ___that$[ebp]
	mov	edx, DWORD PTR [ecx]
	mov	DWORD PTR [eax], edx
	mov	ecx, DWORD PTR [ecx+4]
	mov	DWORD PTR [eax+4], ecx
	pop	ebp
	ret	4
??4OGRStyleMgr@@QAEAAV0@ABV0@@Z ENDP			; OGRStyleMgr::operator=
_TEXT	ENDS
PUBLIC	??_FOGRStyleMgr@@QAEXXZ				; OGRStyleMgr::`default constructor closure'
EXTRN	??0OGRStyleMgr@@QAE@PAVOGRStyleTable@@@Z:PROC	; OGRStyleMgr::OGRStyleMgr
; Function compile flags: /Ogtp
;	COMDAT ??_FOGRStyleMgr@@QAEXXZ
_TEXT	SEGMENT
??_FOGRStyleMgr@@QAEXXZ PROC				; OGRStyleMgr::`default constructor closure', COMDAT
; _this$ = ecx
	push	0
	call	??0OGRStyleMgr@@QAE@PAVOGRStyleTable@@@Z ; OGRStyleMgr::OGRStyleMgr
	ret	0
??_FOGRStyleMgr@@QAEXXZ ENDP				; OGRStyleMgr::`default constructor closure'
_TEXT	ENDS
PUBLIC	??_7OGRStyleTool@@6B@				; OGRStyleTool::`vftable'
PUBLIC	??0OGRStyleTool@@QAE@XZ				; OGRStyleTool::OGRStyleTool
PUBLIC	??_R4OGRStyleTool@@6B@				; OGRStyleTool::`RTTI Complete Object Locator'
PUBLIC	??_R0?AVOGRStyleTool@@@8			; OGRStyleTool `RTTI Type Descriptor'
PUBLIC	??_R3OGRStyleTool@@8				; OGRStyleTool::`RTTI Class Hierarchy Descriptor'
PUBLIC	??_R2OGRStyleTool@@8				; OGRStyleTool::`RTTI Base Class Array'
PUBLIC	??_R1A@?0A@EA@OGRStyleTool@@8			; OGRStyleTool::`RTTI Base Class Descriptor at (0,-1,0,64)'
PUBLIC	??_EOGRStyleTool@@UAEPAXI@Z			; OGRStyleTool::`vector deleting destructor'
;	COMDAT ??_R1A@?0A@EA@OGRStyleTool@@8
rdata$r	SEGMENT
??_R1A@?0A@EA@OGRStyleTool@@8 DD FLAT:??_R0?AVOGRStyleTool@@@8 ; OGRStyleTool::`RTTI Base Class Descriptor at (0,-1,0,64)'
	DD	00H
	DD	00H
	DD	0ffffffffH
	DD	00H
	DD	040H
	DD	FLAT:??_R3OGRStyleTool@@8
rdata$r	ENDS
;	COMDAT ??_R2OGRStyleTool@@8
rdata$r	SEGMENT
??_R2OGRStyleTool@@8 DD FLAT:??_R1A@?0A@EA@OGRStyleTool@@8 ; OGRStyleTool::`RTTI Base Class Array'
rdata$r	ENDS
;	COMDAT ??_R3OGRStyleTool@@8
rdata$r	SEGMENT
??_R3OGRStyleTool@@8 DD 00H				; OGRStyleTool::`RTTI Class Hierarchy Descriptor'
	DD	00H
	DD	01H
	DD	FLAT:??_R2OGRStyleTool@@8
rdata$r	ENDS
;	COMDAT ??_R0?AVOGRStyleTool@@@8
_DATA	SEGMENT
??_R0?AVOGRStyleTool@@@8 DD FLAT:??_7type_info@@6B@	; OGRStyleTool `RTTI Type Descriptor'
	DD	00H
	DB	'.?AVOGRStyleTool@@', 00H
_DATA	ENDS
;	COMDAT ??_R4OGRStyleTool@@6B@
rdata$r	SEGMENT
??_R4OGRStyleTool@@6B@ DD 00H				; OGRStyleTool::`RTTI Complete Object Locator'
	DD	00H
	DD	00H
	DD	FLAT:??_R0?AVOGRStyleTool@@@8
	DD	FLAT:??_R3OGRStyleTool@@8
rdata$r	ENDS
;	COMDAT ??_7OGRStyleTool@@6B@
CONST	SEGMENT
??_7OGRStyleTool@@6B@ DD FLAT:??_R4OGRStyleTool@@6B@	; OGRStyleTool::`vftable'
	DD	FLAT:__purecall
	DD	FLAT:??_EOGRStyleTool@@UAEPAXI@Z
	DD	FLAT:__purecall
; Function compile flags: /Ogtp
CONST	ENDS
;	COMDAT ??0OGRStyleTool@@QAE@XZ
_TEXT	SEGMENT
??0OGRStyleTool@@QAE@XZ PROC				; OGRStyleTool::OGRStyleTool, COMDAT
; _this$ = ecx
; Line 178
	mov	eax, ecx
	mov	DWORD PTR [eax], OFFSET ??_7OGRStyleTool@@6B@
	ret	0
??0OGRStyleTool@@QAE@XZ ENDP				; OGRStyleTool::OGRStyleTool
_TEXT	ENDS
PUBLIC	?IsStyleModified@OGRStyleTool@@QAEHXZ		; OGRStyleTool::IsStyleModified
; Function compile flags: /Ogtp
;	COMDAT ?IsStyleModified@OGRStyleTool@@QAEHXZ
_TEXT	SEGMENT
?IsStyleModified@OGRStyleTool@@QAEHXZ PROC		; OGRStyleTool::IsStyleModified, COMDAT
; _this$ = ecx
; Line 186
	mov	eax, DWORD PTR [ecx+8]
	ret	0
?IsStyleModified@OGRStyleTool@@QAEHXZ ENDP		; OGRStyleTool::IsStyleModified
_TEXT	ENDS
PUBLIC	?StyleModified@OGRStyleTool@@QAEXXZ		; OGRStyleTool::StyleModified
; Function compile flags: /Ogtp
;	COMDAT ?StyleModified@OGRStyleTool@@QAEXXZ
_TEXT	SEGMENT
?StyleModified@OGRStyleTool@@QAEXXZ PROC		; OGRStyleTool::StyleModified, COMDAT
; _this$ = ecx
; Line 187
	mov	DWORD PTR [ecx+8], 1
	ret	0
?StyleModified@OGRStyleTool@@QAEXXZ ENDP		; OGRStyleTool::StyleModified
_TEXT	ENDS
PUBLIC	?IsStyleParsed@OGRStyleTool@@QAEHXZ		; OGRStyleTool::IsStyleParsed
; Function compile flags: /Ogtp
;	COMDAT ?IsStyleParsed@OGRStyleTool@@QAEHXZ
_TEXT	SEGMENT
?IsStyleParsed@OGRStyleTool@@QAEHXZ PROC		; OGRStyleTool::IsStyleParsed, COMDAT
; _this$ = ecx
; Line 189
	mov	eax, DWORD PTR [ecx+12]
	ret	0
?IsStyleParsed@OGRStyleTool@@QAEHXZ ENDP		; OGRStyleTool::IsStyleParsed
_TEXT	ENDS
PUBLIC	?StyleParsed@OGRStyleTool@@QAEXXZ		; OGRStyleTool::StyleParsed
; Function compile flags: /Ogtp
;	COMDAT ?StyleParsed@OGRStyleTool@@QAEXXZ
_TEXT	SEGMENT
?StyleParsed@OGRStyleTool@@QAEXXZ PROC			; OGRStyleTool::StyleParsed, COMDAT
; _this$ = ecx
; Line 190
	mov	DWORD PTR [ecx+12], 1
	ret	0
?StyleParsed@OGRStyleTool@@QAEXXZ ENDP			; OGRStyleTool::StyleParsed
_TEXT	ENDS
PUBLIC	?GetUnit@OGRStyleTool@@QAE?AW4ogr_style_tool_units_id@@XZ ; OGRStyleTool::GetUnit
; Function compile flags: /Ogtp
;	COMDAT ?GetUnit@OGRStyleTool@@QAE?AW4ogr_style_tool_units_id@@XZ
_TEXT	SEGMENT
?GetUnit@OGRStyleTool@@QAE?AW4ogr_style_tool_units_id@@XZ PROC ; OGRStyleTool::GetUnit, COMDAT
; _this$ = ecx
; Line 199
	mov	eax, DWORD PTR [ecx+24]
	ret	0
?GetUnit@OGRStyleTool@@QAE?AW4ogr_style_tool_units_id@@XZ ENDP ; OGRStyleTool::GetUnit
_TEXT	ENDS
PUBLIC	??0OGRStyleTool@@QAE@ABV0@@Z			; OGRStyleTool::OGRStyleTool
; Function compile flags: /Ogtp
;	COMDAT ??0OGRStyleTool@@QAE@ABV0@@Z
_TEXT	SEGMENT
___that$ = 8						; size = 4
??0OGRStyleTool@@QAE@ABV0@@Z PROC			; OGRStyleTool::OGRStyleTool, COMDAT
; _this$ = ecx
	push	ebp
	mov	ebp, esp
	mov	eax, ecx
	mov	ecx, DWORD PTR ___that$[ebp]
	mov	DWORD PTR [eax], OFFSET ??_7OGRStyleTool@@6B@
	mov	edx, DWORD PTR [ecx+8]
	mov	DWORD PTR [eax+8], edx
	mov	edx, DWORD PTR [ecx+12]
	mov	DWORD PTR [eax+12], edx
	fld	QWORD PTR [ecx+16]
	fstp	QWORD PTR [eax+16]
	mov	edx, DWORD PTR [ecx+24]
	mov	DWORD PTR [eax+24], edx
	mov	edx, DWORD PTR [ecx+28]
	mov	DWORD PTR [eax+28], edx
	mov	ecx, DWORD PTR [ecx+32]
	mov	DWORD PTR [eax+32], ecx
	pop	ebp
	ret	4
??0OGRStyleTool@@QAE@ABV0@@Z ENDP			; OGRStyleTool::OGRStyleTool
_TEXT	ENDS
PUBLIC	??4OGRStyleTool@@QAEAAV0@ABV0@@Z		; OGRStyleTool::operator=
; Function compile flags: /Ogtp
;	COMDAT ??4OGRStyleTool@@QAEAAV0@ABV0@@Z
_TEXT	SEGMENT
___that$ = 8						; size = 4
??4OGRStyleTool@@QAEAAV0@ABV0@@Z PROC			; OGRStyleTool::operator=, COMDAT
; _this$ = ecx
	push	ebp
	mov	ebp, esp
	mov	eax, ecx
	mov	ecx, DWORD PTR ___that$[ebp]
	mov	edx, DWORD PTR [ecx+8]
	mov	DWORD PTR [eax+8], edx
	mov	edx, DWORD PTR [ecx+12]
	mov	DWORD PTR [eax+12], edx
	fld	QWORD PTR [ecx+16]
	fstp	QWORD PTR [eax+16]
	mov	edx, DWORD PTR [ecx+24]
	mov	DWORD PTR [eax+24], edx
	mov	edx, DWORD PTR [ecx+28]
	mov	DWORD PTR [eax+28], edx
	mov	ecx, DWORD PTR [ecx+32]
	mov	DWORD PTR [eax+32], ecx
	pop	ebp
	ret	4
??4OGRStyleTool@@QAEAAV0@ABV0@@Z ENDP			; OGRStyleTool::operator=
_TEXT	ENDS
PUBLIC	??_GOGRStyleTool@@UAEPAXI@Z			; OGRStyleTool::`scalar deleting destructor'
EXTRN	??1OGRStyleTool@@UAE@XZ:PROC			; OGRStyleTool::~OGRStyleTool
; Function compile flags: /Ogtp
;	COMDAT ??_GOGRStyleTool@@UAEPAXI@Z
_TEXT	SEGMENT
___flags$ = 8						; size = 4
??_GOGRStyleTool@@UAEPAXI@Z PROC			; OGRStyleTool::`scalar deleting destructor', COMDAT
; _this$ = ecx
	push	ebp
	mov	ebp, esp
	push	esi
	mov	esi, ecx
	call	??1OGRStyleTool@@UAE@XZ			; OGRStyleTool::~OGRStyleTool
	test	BYTE PTR ___flags$[ebp], 1
	je	SHORT $LN4@scalar@14
	push	esi
	call	??3@YAXPAX@Z				; operator delete
	add	esp, 4
$LN4@scalar@14:
	mov	eax, esi
	pop	esi
	pop	ebp
	ret	4
??_GOGRStyleTool@@UAEPAXI@Z ENDP			; OGRStyleTool::`scalar deleting destructor'
; Function compile flags: /Ogtp
_TEXT	ENDS
;	COMDAT ??_EOGRStyleTool@@UAEPAXI@Z
_TEXT	SEGMENT
___flags$ = 8						; size = 4
??_EOGRStyleTool@@UAEPAXI@Z PROC			; OGRStyleTool::`vector deleting destructor', COMDAT
; _this$ = ecx
	push	ebp
	mov	ebp, esp
	push	ebx
	mov	bl, BYTE PTR ___flags$[ebp]
	push	esi
	mov	esi, ecx
	test	bl, 2
	je	SHORT $LN3@vector@14
	mov	eax, DWORD PTR [esi-4]
	push	edi
	push	OFFSET ??1OGRStyleTool@@UAE@XZ		; OGRStyleTool::~OGRStyleTool
	lea	edi, DWORD PTR [esi-4]
	push	eax
	push	40					; 00000028H
	push	esi
	call	??_M@YGXPAXIHP6EX0@Z@Z
	test	bl, 1
	je	SHORT $LN2@vector@14
	push	edi
	call	??_V@YAXPAX@Z				; operator delete[]
	add	esp, 4
$LN2@vector@14:
	mov	eax, edi
	pop	edi
	pop	esi
	pop	ebx
	pop	ebp
	ret	4
$LN3@vector@14:
	call	??1OGRStyleTool@@UAE@XZ			; OGRStyleTool::~OGRStyleTool
	test	bl, 1
	je	SHORT $LN1@vector@14
	push	esi
	call	??3@YAXPAX@Z				; operator delete
	add	esp, 4
$LN1@vector@14:
	mov	eax, esi
	pop	esi
	pop	ebx
	pop	ebp
	ret	4
??_EOGRStyleTool@@UAEPAXI@Z ENDP			; OGRStyleTool::`vector deleting destructor'
_TEXT	ENDS
PUBLIC	?Color@OGRStylePen@@QAEPBDAAH@Z			; OGRStylePen::Color
EXTRN	?GetParamStr@OGRStylePen@@QAEPBDW4ogr_style_tool_param_pen_id@@AAH@Z:PROC ; OGRStylePen::GetParamStr
; Function compile flags: /Ogtp
;	COMDAT ?Color@OGRStylePen@@QAEPBDAAH@Z
_TEXT	SEGMENT
_bDefault$ = 8						; size = 4
?Color@OGRStylePen@@QAEPBDAAH@Z PROC			; OGRStylePen::Color, COMDAT
; _this$ = ecx
; Line 259
	push	ebp
	mov	ebp, esp
	mov	eax, DWORD PTR _bDefault$[ebp]
	push	eax
	push	0
	call	?GetParamStr@OGRStylePen@@QAEPBDW4ogr_style_tool_param_pen_id@@AAH@Z ; OGRStylePen::GetParamStr
	pop	ebp
	ret	4
?Color@OGRStylePen@@QAEPBDAAH@Z ENDP			; OGRStylePen::Color
_TEXT	ENDS
PUBLIC	?SetColor@OGRStylePen@@QAEXPBD@Z		; OGRStylePen::SetColor
EXTRN	?SetParamStr@OGRStylePen@@QAEXW4ogr_style_tool_param_pen_id@@PBD@Z:PROC ; OGRStylePen::SetParamStr
; Function compile flags: /Ogtp
;	COMDAT ?SetColor@OGRStylePen@@QAEXPBD@Z
_TEXT	SEGMENT
_pszColor$ = 8						; size = 4
?SetColor@OGRStylePen@@QAEXPBD@Z PROC			; OGRStylePen::SetColor, COMDAT
; _this$ = ecx
; Line 260
	push	ebp
	mov	ebp, esp
	mov	eax, DWORD PTR _pszColor$[ebp]
	push	eax
	push	0
	call	?SetParamStr@OGRStylePen@@QAEXW4ogr_style_tool_param_pen_id@@PBD@Z ; OGRStylePen::SetParamStr
	pop	ebp
	ret	4
?SetColor@OGRStylePen@@QAEXPBD@Z ENDP			; OGRStylePen::SetColor
_TEXT	ENDS
PUBLIC	?Width@OGRStylePen@@QAENAAH@Z			; OGRStylePen::Width
EXTRN	?GetParamDbl@OGRStylePen@@QAENW4ogr_style_tool_param_pen_id@@AAH@Z:PROC ; OGRStylePen::GetParamDbl
; Function compile flags: /Ogtp
;	COMDAT ?Width@OGRStylePen@@QAENAAH@Z
_TEXT	SEGMENT
_bDefault$ = 8						; size = 4
?Width@OGRStylePen@@QAENAAH@Z PROC			; OGRStylePen::Width, COMDAT
; _this$ = ecx
; Line 261
	push	ebp
	mov	ebp, esp
	mov	eax, DWORD PTR _bDefault$[ebp]
	push	eax
	push	1
	call	?GetParamDbl@OGRStylePen@@QAENW4ogr_style_tool_param_pen_id@@AAH@Z ; OGRStylePen::GetParamDbl
	pop	ebp
	ret	4
?Width@OGRStylePen@@QAENAAH@Z ENDP			; OGRStylePen::Width
_TEXT	ENDS
PUBLIC	?SetWidth@OGRStylePen@@QAEXN@Z			; OGRStylePen::SetWidth
EXTRN	?SetParamDbl@OGRStylePen@@QAEXW4ogr_style_tool_param_pen_id@@N@Z:PROC ; OGRStylePen::SetParamDbl
; Function compile flags: /Ogtp
;	COMDAT ?SetWidth@OGRStylePen@@QAEXN@Z
_TEXT	SEGMENT
_dfWidth$ = 8						; size = 8
?SetWidth@OGRStylePen@@QAEXN@Z PROC			; OGRStylePen::SetWidth, COMDAT
; _this$ = ecx
; Line 262
	push	ebp
	mov	ebp, esp
	fld	QWORD PTR _dfWidth$[ebp]
	sub	esp, 8
	fstp	QWORD PTR [esp]
	push	1
	call	?SetParamDbl@OGRStylePen@@QAEXW4ogr_style_tool_param_pen_id@@N@Z ; OGRStylePen::SetParamDbl
	pop	ebp
	ret	8
?SetWidth@OGRStylePen@@QAEXN@Z ENDP			; OGRStylePen::SetWidth
_TEXT	ENDS
PUBLIC	?Pattern@OGRStylePen@@QAEPBDAAH@Z		; OGRStylePen::Pattern
; Function compile flags: /Ogtp
;	COMDAT ?Pattern@OGRStylePen@@QAEPBDAAH@Z
_TEXT	SEGMENT
_bDefault$ = 8						; size = 4
?Pattern@OGRStylePen@@QAEPBDAAH@Z PROC			; OGRStylePen::Pattern, COMDAT
; _this$ = ecx
; Line 263
	push	ebp
	mov	ebp, esp
	mov	eax, DWORD PTR _bDefault$[ebp]
	push	eax
	push	2
	call	?GetParamStr@OGRStylePen@@QAEPBDW4ogr_style_tool_param_pen_id@@AAH@Z ; OGRStylePen::GetParamStr
	pop	ebp
	ret	4
?Pattern@OGRStylePen@@QAEPBDAAH@Z ENDP			; OGRStylePen::Pattern
_TEXT	ENDS
PUBLIC	?SetPattern@OGRStylePen@@QAEXPBD@Z		; OGRStylePen::SetPattern
; Function compile flags: /Ogtp
;	COMDAT ?SetPattern@OGRStylePen@@QAEXPBD@Z
_TEXT	SEGMENT
_pszPattern$ = 8					; size = 4
?SetPattern@OGRStylePen@@QAEXPBD@Z PROC			; OGRStylePen::SetPattern, COMDAT
; _this$ = ecx
; Line 264
	push	ebp
	mov	ebp, esp
	mov	eax, DWORD PTR _pszPattern$[ebp]
	push	eax
	push	2
	call	?SetParamStr@OGRStylePen@@QAEXW4ogr_style_tool_param_pen_id@@PBD@Z ; OGRStylePen::SetParamStr
	pop	ebp
	ret	4
?SetPattern@OGRStylePen@@QAEXPBD@Z ENDP			; OGRStylePen::SetPattern
_TEXT	ENDS
PUBLIC	?Id@OGRStylePen@@QAEPBDAAH@Z			; OGRStylePen::Id
; Function compile flags: /Ogtp
;	COMDAT ?Id@OGRStylePen@@QAEPBDAAH@Z
_TEXT	SEGMENT
_bDefault$ = 8						; size = 4
?Id@OGRStylePen@@QAEPBDAAH@Z PROC			; OGRStylePen::Id, COMDAT
; _this$ = ecx
; Line 265
	push	ebp
	mov	ebp, esp
	mov	eax, DWORD PTR _bDefault$[ebp]
	push	eax
	push	3
	call	?GetParamStr@OGRStylePen@@QAEPBDW4ogr_style_tool_param_pen_id@@AAH@Z ; OGRStylePen::GetParamStr
	pop	ebp
	ret	4
?Id@OGRStylePen@@QAEPBDAAH@Z ENDP			; OGRStylePen::Id
_TEXT	ENDS
PUBLIC	?SetId@OGRStylePen@@QAEXPBD@Z			; OGRStylePen::SetId
; Function compile flags: /Ogtp
;	COMDAT ?SetId@OGRStylePen@@QAEXPBD@Z
_TEXT	SEGMENT
_pszId$ = 8						; size = 4
?SetId@OGRStylePen@@QAEXPBD@Z PROC			; OGRStylePen::SetId, COMDAT
; _this$ = ecx
; Line 266
	push	ebp
	mov	ebp, esp
	mov	eax, DWORD PTR _pszId$[ebp]
	push	eax
	push	3
	call	?SetParamStr@OGRStylePen@@QAEXW4ogr_style_tool_param_pen_id@@PBD@Z ; OGRStylePen::SetParamStr
	pop	ebp
	ret	4
?SetId@OGRStylePen@@QAEXPBD@Z ENDP			; OGRStylePen::SetId
_TEXT	ENDS
PUBLIC	?PerpendicularOffset@OGRStylePen@@QAENAAH@Z	; OGRStylePen::PerpendicularOffset
; Function compile flags: /Ogtp
;	COMDAT ?PerpendicularOffset@OGRStylePen@@QAENAAH@Z
_TEXT	SEGMENT
_bDefault$ = 8						; size = 4
?PerpendicularOffset@OGRStylePen@@QAENAAH@Z PROC	; OGRStylePen::PerpendicularOffset, COMDAT
; _this$ = ecx
; Line 267
	push	ebp
	mov	ebp, esp
	mov	eax, DWORD PTR _bDefault$[ebp]
	push	eax
	push	4
	call	?GetParamDbl@OGRStylePen@@QAENW4ogr_style_tool_param_pen_id@@AAH@Z ; OGRStylePen::GetParamDbl
	pop	ebp
	ret	4
?PerpendicularOffset@OGRStylePen@@QAENAAH@Z ENDP	; OGRStylePen::PerpendicularOffset
_TEXT	ENDS
PUBLIC	?SetPerpendicularOffset@OGRStylePen@@QAEXN@Z	; OGRStylePen::SetPerpendicularOffset
; Function compile flags: /Ogtp
;	COMDAT ?SetPerpendicularOffset@OGRStylePen@@QAEXN@Z
_TEXT	SEGMENT
_dfPerp$ = 8						; size = 8
?SetPerpendicularOffset@OGRStylePen@@QAEXN@Z PROC	; OGRStylePen::SetPerpendicularOffset, COMDAT
; _this$ = ecx
; Line 268
	push	ebp
	mov	ebp, esp
	fld	QWORD PTR _dfPerp$[ebp]
	sub	esp, 8
	fstp	QWORD PTR [esp]
	push	4
	call	?SetParamDbl@OGRStylePen@@QAEXW4ogr_style_tool_param_pen_id@@N@Z ; OGRStylePen::SetParamDbl
	pop	ebp
	ret	8
?SetPerpendicularOffset@OGRStylePen@@QAEXN@Z ENDP	; OGRStylePen::SetPerpendicularOffset
_TEXT	ENDS
PUBLIC	?Cap@OGRStylePen@@QAEPBDAAH@Z			; OGRStylePen::Cap
; Function compile flags: /Ogtp
;	COMDAT ?Cap@OGRStylePen@@QAEPBDAAH@Z
_TEXT	SEGMENT
_bDefault$ = 8						; size = 4
?Cap@OGRStylePen@@QAEPBDAAH@Z PROC			; OGRStylePen::Cap, COMDAT
; _this$ = ecx
; Line 269
	push	ebp
	mov	ebp, esp
	mov	eax, DWORD PTR _bDefault$[ebp]
	push	eax
	push	5
	call	?GetParamStr@OGRStylePen@@QAEPBDW4ogr_style_tool_param_pen_id@@AAH@Z ; OGRStylePen::GetParamStr
	pop	ebp
	ret	4
?Cap@OGRStylePen@@QAEPBDAAH@Z ENDP			; OGRStylePen::Cap
_TEXT	ENDS
PUBLIC	?SetCap@OGRStylePen@@QAEXPBD@Z			; OGRStylePen::SetCap
; Function compile flags: /Ogtp
;	COMDAT ?SetCap@OGRStylePen@@QAEXPBD@Z
_TEXT	SEGMENT
_pszCap$ = 8						; size = 4
?SetCap@OGRStylePen@@QAEXPBD@Z PROC			; OGRStylePen::SetCap, COMDAT
; _this$ = ecx
; Line 270
	push	ebp
	mov	ebp, esp
	mov	eax, DWORD PTR _pszCap$[ebp]
	push	eax
	push	5
	call	?SetParamStr@OGRStylePen@@QAEXW4ogr_style_tool_param_pen_id@@PBD@Z ; OGRStylePen::SetParamStr
	pop	ebp
	ret	4
?SetCap@OGRStylePen@@QAEXPBD@Z ENDP			; OGRStylePen::SetCap
_TEXT	ENDS
PUBLIC	?Join@OGRStylePen@@QAEPBDAAH@Z			; OGRStylePen::Join
; Function compile flags: /Ogtp
;	COMDAT ?Join@OGRStylePen@@QAEPBDAAH@Z
_TEXT	SEGMENT
_bDefault$ = 8						; size = 4
?Join@OGRStylePen@@QAEPBDAAH@Z PROC			; OGRStylePen::Join, COMDAT
; _this$ = ecx
; Line 271
	push	ebp
	mov	ebp, esp
	mov	eax, DWORD PTR _bDefault$[ebp]
	push	eax
	push	6
	call	?GetParamStr@OGRStylePen@@QAEPBDW4ogr_style_tool_param_pen_id@@AAH@Z ; OGRStylePen::GetParamStr
	pop	ebp
	ret	4
?Join@OGRStylePen@@QAEPBDAAH@Z ENDP			; OGRStylePen::Join
_TEXT	ENDS
PUBLIC	?SetJoin@OGRStylePen@@QAEXPBD@Z			; OGRStylePen::SetJoin
; Function compile flags: /Ogtp
;	COMDAT ?SetJoin@OGRStylePen@@QAEXPBD@Z
_TEXT	SEGMENT
_pszJoin$ = 8						; size = 4
?SetJoin@OGRStylePen@@QAEXPBD@Z PROC			; OGRStylePen::SetJoin, COMDAT
; _this$ = ecx
; Line 272
	push	ebp
	mov	ebp, esp
	mov	eax, DWORD PTR _pszJoin$[ebp]
	push	eax
	push	6
	call	?SetParamStr@OGRStylePen@@QAEXW4ogr_style_tool_param_pen_id@@PBD@Z ; OGRStylePen::SetParamStr
	pop	ebp
	ret	4
?SetJoin@OGRStylePen@@QAEXPBD@Z ENDP			; OGRStylePen::SetJoin
_TEXT	ENDS
PUBLIC	?Priority@OGRStylePen@@QAEHAAH@Z		; OGRStylePen::Priority
EXTRN	?GetParamNum@OGRStylePen@@QAEHW4ogr_style_tool_param_pen_id@@AAH@Z:PROC ; OGRStylePen::GetParamNum
; Function compile flags: /Ogtp
;	COMDAT ?Priority@OGRStylePen@@QAEHAAH@Z
_TEXT	SEGMENT
_bDefault$ = 8						; size = 4
?Priority@OGRStylePen@@QAEHAAH@Z PROC			; OGRStylePen::Priority, COMDAT
; _this$ = ecx
; Line 273
	push	ebp
	mov	ebp, esp
	mov	eax, DWORD PTR _bDefault$[ebp]
	push	eax
	push	7
	call	?GetParamNum@OGRStylePen@@QAEHW4ogr_style_tool_param_pen_id@@AAH@Z ; OGRStylePen::GetParamNum
	pop	ebp
	ret	4
?Priority@OGRStylePen@@QAEHAAH@Z ENDP			; OGRStylePen::Priority
_TEXT	ENDS
PUBLIC	?SetPriority@OGRStylePen@@QAEXH@Z		; OGRStylePen::SetPriority
EXTRN	?SetParamNum@OGRStylePen@@QAEXW4ogr_style_tool_param_pen_id@@H@Z:PROC ; OGRStylePen::SetParamNum
; Function compile flags: /Ogtp
;	COMDAT ?SetPriority@OGRStylePen@@QAEXH@Z
_TEXT	SEGMENT
_nPriority$ = 8						; size = 4
?SetPriority@OGRStylePen@@QAEXH@Z PROC			; OGRStylePen::SetPriority, COMDAT
; _this$ = ecx
; Line 274
	push	ebp
	mov	ebp, esp
	mov	eax, DWORD PTR _nPriority$[ebp]
	push	eax
	push	7
	call	?SetParamNum@OGRStylePen@@QAEXW4ogr_style_tool_param_pen_id@@H@Z ; OGRStylePen::SetParamNum
	pop	ebp
	ret	4
?SetPriority@OGRStylePen@@QAEXH@Z ENDP			; OGRStylePen::SetPriority
_TEXT	ENDS
PUBLIC	??_7OGRStylePen@@6B@				; OGRStylePen::`vftable'
PUBLIC	??0OGRStylePen@@QAE@ABV0@@Z			; OGRStylePen::OGRStylePen
PUBLIC	??_R4OGRStylePen@@6B@				; OGRStylePen::`RTTI Complete Object Locator'
PUBLIC	??_R0?AVOGRStylePen@@@8				; OGRStylePen `RTTI Type Descriptor'
PUBLIC	??_R3OGRStylePen@@8				; OGRStylePen::`RTTI Class Hierarchy Descriptor'
PUBLIC	??_R2OGRStylePen@@8				; OGRStylePen::`RTTI Base Class Array'
PUBLIC	??_R1A@?0A@EA@OGRStylePen@@8			; OGRStylePen::`RTTI Base Class Descriptor at (0,-1,0,64)'
PUBLIC	??_EOGRStylePen@@UAEPAXI@Z			; OGRStylePen::`vector deleting destructor'
EXTRN	?Parse@OGRStylePen@@EAEHXZ:PROC			; OGRStylePen::Parse
EXTRN	?GetStyleString@OGRStylePen@@UAEPBDXZ:PROC	; OGRStylePen::GetStyleString
;	COMDAT ??_R1A@?0A@EA@OGRStylePen@@8
rdata$r	SEGMENT
??_R1A@?0A@EA@OGRStylePen@@8 DD FLAT:??_R0?AVOGRStylePen@@@8 ; OGRStylePen::`RTTI Base Class Descriptor at (0,-1,0,64)'
	DD	01H
	DD	00H
	DD	0ffffffffH
	DD	00H
	DD	040H
	DD	FLAT:??_R3OGRStylePen@@8
rdata$r	ENDS
;	COMDAT ??_R2OGRStylePen@@8
rdata$r	SEGMENT
??_R2OGRStylePen@@8 DD FLAT:??_R1A@?0A@EA@OGRStylePen@@8 ; OGRStylePen::`RTTI Base Class Array'
	DD	FLAT:??_R1A@?0A@EA@OGRStyleTool@@8
rdata$r	ENDS
;	COMDAT ??_R3OGRStylePen@@8
rdata$r	SEGMENT
??_R3OGRStylePen@@8 DD 00H				; OGRStylePen::`RTTI Class Hierarchy Descriptor'
	DD	00H
	DD	02H
	DD	FLAT:??_R2OGRStylePen@@8
rdata$r	ENDS
;	COMDAT ??_R0?AVOGRStylePen@@@8
_DATA	SEGMENT
??_R0?AVOGRStylePen@@@8 DD FLAT:??_7type_info@@6B@	; OGRStylePen `RTTI Type Descriptor'
	DD	00H
	DB	'.?AVOGRStylePen@@', 00H
_DATA	ENDS
;	COMDAT ??_R4OGRStylePen@@6B@
rdata$r	SEGMENT
??_R4OGRStylePen@@6B@ DD 00H				; OGRStylePen::`RTTI Complete Object Locator'
	DD	00H
	DD	00H
	DD	FLAT:??_R0?AVOGRStylePen@@@8
	DD	FLAT:??_R3OGRStylePen@@8
rdata$r	ENDS
;	COMDAT ??_7OGRStylePen@@6B@
CONST	SEGMENT
??_7OGRStylePen@@6B@ DD FLAT:??_R4OGRStylePen@@6B@	; OGRStylePen::`vftable'
	DD	FLAT:?Parse@OGRStylePen@@EAEHXZ
	DD	FLAT:??_EOGRStylePen@@UAEPAXI@Z
	DD	FLAT:?GetStyleString@OGRStylePen@@UAEPBDXZ
; Function compile flags: /Ogtp
CONST	ENDS
;	COMDAT ??0OGRStylePen@@QAE@ABV0@@Z
_TEXT	SEGMENT
___that$ = 8						; size = 4
??0OGRStylePen@@QAE@ABV0@@Z PROC			; OGRStylePen::OGRStylePen, COMDAT
; _this$ = ecx
	push	ebp
	mov	ebp, esp
	mov	eax, ecx
	mov	ecx, DWORD PTR ___that$[ebp]
	mov	DWORD PTR [eax], OFFSET ??_7OGRStyleTool@@6B@
	mov	edx, DWORD PTR [ecx+8]
	mov	DWORD PTR [eax+8], edx
	mov	edx, DWORD PTR [ecx+12]
	mov	DWORD PTR [eax+12], edx
	fld	QWORD PTR [ecx+16]
	fstp	QWORD PTR [eax+16]
	mov	edx, DWORD PTR [ecx+24]
	mov	DWORD PTR [eax+24], edx
	mov	edx, DWORD PTR [ecx+28]
	mov	DWORD PTR [eax+28], edx
	mov	edx, DWORD PTR [ecx+32]
	mov	DWORD PTR [eax+32], edx
	mov	DWORD PTR [eax], OFFSET ??_7OGRStylePen@@6B@
	mov	ecx, DWORD PTR [ecx+40]
	mov	DWORD PTR [eax+40], ecx
	pop	ebp
	ret	4
??0OGRStylePen@@QAE@ABV0@@Z ENDP			; OGRStylePen::OGRStylePen
_TEXT	ENDS
PUBLIC	??4OGRStylePen@@QAEAAV0@ABV0@@Z			; OGRStylePen::operator=
; Function compile flags: /Ogtp
;	COMDAT ??4OGRStylePen@@QAEAAV0@ABV0@@Z
_TEXT	SEGMENT
___that$ = 8						; size = 4
??4OGRStylePen@@QAEAAV0@ABV0@@Z PROC			; OGRStylePen::operator=, COMDAT
; _this$ = ecx
	push	ebp
	mov	ebp, esp
	mov	eax, ecx
	mov	ecx, DWORD PTR ___that$[ebp]
	mov	edx, DWORD PTR [ecx+8]
	mov	DWORD PTR [eax+8], edx
	mov	edx, DWORD PTR [ecx+12]
	mov	DWORD PTR [eax+12], edx
	fld	QWORD PTR [ecx+16]
	fstp	QWORD PTR [eax+16]
	mov	edx, DWORD PTR [ecx+24]
	mov	DWORD PTR [eax+24], edx
	mov	edx, DWORD PTR [ecx+28]
	mov	DWORD PTR [eax+28], edx
	mov	edx, DWORD PTR [ecx+32]
	mov	DWORD PTR [eax+32], edx
	mov	ecx, DWORD PTR [ecx+40]
	mov	DWORD PTR [eax+40], ecx
	pop	ebp
	ret	4
??4OGRStylePen@@QAEAAV0@ABV0@@Z ENDP			; OGRStylePen::operator=
_TEXT	ENDS
PUBLIC	??_GOGRStylePen@@UAEPAXI@Z			; OGRStylePen::`scalar deleting destructor'
EXTRN	??1OGRStylePen@@UAE@XZ:PROC			; OGRStylePen::~OGRStylePen
; Function compile flags: /Ogtp
;	COMDAT ??_GOGRStylePen@@UAEPAXI@Z
_TEXT	SEGMENT
___flags$ = 8						; size = 4
??_GOGRStylePen@@UAEPAXI@Z PROC				; OGRStylePen::`scalar deleting destructor', COMDAT
; _this$ = ecx
	push	ebp
	mov	ebp, esp
	push	esi
	mov	esi, ecx
	call	??1OGRStylePen@@UAE@XZ			; OGRStylePen::~OGRStylePen
	test	BYTE PTR ___flags$[ebp], 1
	je	SHORT $LN4@scalar@15
	push	esi
	call	??3@YAXPAX@Z				; operator delete
	add	esp, 4
$LN4@scalar@15:
	mov	eax, esi
	pop	esi
	pop	ebp
	ret	4
??_GOGRStylePen@@UAEPAXI@Z ENDP				; OGRStylePen::`scalar deleting destructor'
; Function compile flags: /Ogtp
_TEXT	ENDS
;	COMDAT ??_EOGRStylePen@@UAEPAXI@Z
_TEXT	SEGMENT
___flags$ = 8						; size = 4
??_EOGRStylePen@@UAEPAXI@Z PROC				; OGRStylePen::`vector deleting destructor', COMDAT
; _this$ = ecx
	push	ebp
	mov	ebp, esp
	push	ebx
	mov	bl, BYTE PTR ___flags$[ebp]
	push	esi
	mov	esi, ecx
	test	bl, 2
	je	SHORT $LN3@vector@15
	mov	eax, DWORD PTR [esi-4]
	push	edi
	push	OFFSET ??1OGRStylePen@@UAE@XZ		; OGRStylePen::~OGRStylePen
	lea	edi, DWORD PTR [esi-4]
	push	eax
	push	48					; 00000030H
	push	esi
	call	??_M@YGXPAXIHP6EX0@Z@Z
	test	bl, 1
	je	SHORT $LN2@vector@15
	push	edi
	call	??_V@YAXPAX@Z				; operator delete[]
	add	esp, 4
$LN2@vector@15:
	mov	eax, edi
	pop	edi
	pop	esi
	pop	ebx
	pop	ebp
	ret	4
$LN3@vector@15:
	call	??1OGRStylePen@@UAE@XZ			; OGRStylePen::~OGRStylePen
	test	bl, 1
	je	SHORT $LN1@vector@15
	push	esi
	call	??3@YAXPAX@Z				; operator delete
	add	esp, 4
$LN1@vector@15:
	mov	eax, esi
	pop	esi
	pop	ebx
	pop	ebp
	ret	4
??_EOGRStylePen@@UAEPAXI@Z ENDP				; OGRStylePen::`vector deleting destructor'
_TEXT	ENDS
PUBLIC	?ForeColor@OGRStyleBrush@@QAEPBDAAH@Z		; OGRStyleBrush::ForeColor
EXTRN	?GetParamStr@OGRStyleBrush@@QAEPBDW4ogr_style_tool_param_brush_id@@AAH@Z:PROC ; OGRStyleBrush::GetParamStr
; Function compile flags: /Ogtp
;	COMDAT ?ForeColor@OGRStyleBrush@@QAEPBDAAH@Z
_TEXT	SEGMENT
_bDefault$ = 8						; size = 4
?ForeColor@OGRStyleBrush@@QAEPBDAAH@Z PROC		; OGRStyleBrush::ForeColor, COMDAT
; _this$ = ecx
; Line 305
	push	ebp
	mov	ebp, esp
	mov	eax, DWORD PTR _bDefault$[ebp]
	push	eax
	push	0
	call	?GetParamStr@OGRStyleBrush@@QAEPBDW4ogr_style_tool_param_brush_id@@AAH@Z ; OGRStyleBrush::GetParamStr
	pop	ebp
	ret	4
?ForeColor@OGRStyleBrush@@QAEPBDAAH@Z ENDP		; OGRStyleBrush::ForeColor
_TEXT	ENDS
PUBLIC	?SetForeColor@OGRStyleBrush@@QAEXPBD@Z		; OGRStyleBrush::SetForeColor
EXTRN	?SetParamStr@OGRStyleBrush@@QAEXW4ogr_style_tool_param_brush_id@@PBD@Z:PROC ; OGRStyleBrush::SetParamStr
; Function compile flags: /Ogtp
;	COMDAT ?SetForeColor@OGRStyleBrush@@QAEXPBD@Z
_TEXT	SEGMENT
_pszColor$ = 8						; size = 4
?SetForeColor@OGRStyleBrush@@QAEXPBD@Z PROC		; OGRStyleBrush::SetForeColor, COMDAT
; _this$ = ecx
; Line 306
	push	ebp
	mov	ebp, esp
	mov	eax, DWORD PTR _pszColor$[ebp]
	push	eax
	push	0
	call	?SetParamStr@OGRStyleBrush@@QAEXW4ogr_style_tool_param_brush_id@@PBD@Z ; OGRStyleBrush::SetParamStr
	pop	ebp
	ret	4
?SetForeColor@OGRStyleBrush@@QAEXPBD@Z ENDP		; OGRStyleBrush::SetForeColor
_TEXT	ENDS
PUBLIC	?BackColor@OGRStyleBrush@@QAEPBDAAH@Z		; OGRStyleBrush::BackColor
; Function compile flags: /Ogtp
;	COMDAT ?BackColor@OGRStyleBrush@@QAEPBDAAH@Z
_TEXT	SEGMENT
_bDefault$ = 8						; size = 4
?BackColor@OGRStyleBrush@@QAEPBDAAH@Z PROC		; OGRStyleBrush::BackColor, COMDAT
; _this$ = ecx
; Line 307
	push	ebp
	mov	ebp, esp
	mov	eax, DWORD PTR _bDefault$[ebp]
	push	eax
	push	1
	call	?GetParamStr@OGRStyleBrush@@QAEPBDW4ogr_style_tool_param_brush_id@@AAH@Z ; OGRStyleBrush::GetParamStr
	pop	ebp
	ret	4
?BackColor@OGRStyleBrush@@QAEPBDAAH@Z ENDP		; OGRStyleBrush::BackColor
_TEXT	ENDS
PUBLIC	?SetBackColor@OGRStyleBrush@@QAEXPBD@Z		; OGRStyleBrush::SetBackColor
; Function compile flags: /Ogtp
;	COMDAT ?SetBackColor@OGRStyleBrush@@QAEXPBD@Z
_TEXT	SEGMENT
_pszColor$ = 8						; size = 4
?SetBackColor@OGRStyleBrush@@QAEXPBD@Z PROC		; OGRStyleBrush::SetBackColor, COMDAT
; _this$ = ecx
; Line 308
	push	ebp
	mov	ebp, esp
	mov	eax, DWORD PTR _pszColor$[ebp]
	push	eax
	push	1
	call	?SetParamStr@OGRStyleBrush@@QAEXW4ogr_style_tool_param_brush_id@@PBD@Z ; OGRStyleBrush::SetParamStr
	pop	ebp
	ret	4
?SetBackColor@OGRStyleBrush@@QAEXPBD@Z ENDP		; OGRStyleBrush::SetBackColor
_TEXT	ENDS
PUBLIC	?Id@OGRStyleBrush@@QAEPBDAAH@Z			; OGRStyleBrush::Id
; Function compile flags: /Ogtp
;	COMDAT ?Id@OGRStyleBrush@@QAEPBDAAH@Z
_TEXT	SEGMENT
_bDefault$ = 8						; size = 4
?Id@OGRStyleBrush@@QAEPBDAAH@Z PROC			; OGRStyleBrush::Id, COMDAT
; _this$ = ecx
; Line 309
	push	ebp
	mov	ebp, esp
	mov	eax, DWORD PTR _bDefault$[ebp]
	push	eax
	push	2
	call	?GetParamStr@OGRStyleBrush@@QAEPBDW4ogr_style_tool_param_brush_id@@AAH@Z ; OGRStyleBrush::GetParamStr
	pop	ebp
	ret	4
?Id@OGRStyleBrush@@QAEPBDAAH@Z ENDP			; OGRStyleBrush::Id
_TEXT	ENDS
PUBLIC	?SetId@OGRStyleBrush@@QAEXPBD@Z			; OGRStyleBrush::SetId
; Function compile flags: /Ogtp
;	COMDAT ?SetId@OGRStyleBrush@@QAEXPBD@Z
_TEXT	SEGMENT
_pszId$ = 8						; size = 4
?SetId@OGRStyleBrush@@QAEXPBD@Z PROC			; OGRStyleBrush::SetId, COMDAT
; _this$ = ecx
; Line 310
	push	ebp
	mov	ebp, esp
	mov	eax, DWORD PTR _pszId$[ebp]
	push	eax
	push	2
	call	?SetParamStr@OGRStyleBrush@@QAEXW4ogr_style_tool_param_brush_id@@PBD@Z ; OGRStyleBrush::SetParamStr
	pop	ebp
	ret	4
?SetId@OGRStyleBrush@@QAEXPBD@Z ENDP			; OGRStyleBrush::SetId
_TEXT	ENDS
PUBLIC	?Angle@OGRStyleBrush@@QAENAAH@Z			; OGRStyleBrush::Angle
EXTRN	?GetParamDbl@OGRStyleBrush@@QAENW4ogr_style_tool_param_brush_id@@AAH@Z:PROC ; OGRStyleBrush::GetParamDbl
; Function compile flags: /Ogtp
;	COMDAT ?Angle@OGRStyleBrush@@QAENAAH@Z
_TEXT	SEGMENT
_bDefault$ = 8						; size = 4
?Angle@OGRStyleBrush@@QAENAAH@Z PROC			; OGRStyleBrush::Angle, COMDAT
; _this$ = ecx
; Line 311
	push	ebp
	mov	ebp, esp
	mov	eax, DWORD PTR _bDefault$[ebp]
	push	eax
	push	3
	call	?GetParamDbl@OGRStyleBrush@@QAENW4ogr_style_tool_param_brush_id@@AAH@Z ; OGRStyleBrush::GetParamDbl
	pop	ebp
	ret	4
?Angle@OGRStyleBrush@@QAENAAH@Z ENDP			; OGRStyleBrush::Angle
_TEXT	ENDS
PUBLIC	?SetAngle@OGRStyleBrush@@QAEXN@Z		; OGRStyleBrush::SetAngle
EXTRN	?SetParamDbl@OGRStyleBrush@@QAEXW4ogr_style_tool_param_brush_id@@N@Z:PROC ; OGRStyleBrush::SetParamDbl
; Function compile flags: /Ogtp
;	COMDAT ?SetAngle@OGRStyleBrush@@QAEXN@Z
_TEXT	SEGMENT
_dfAngle$ = 8						; size = 8
?SetAngle@OGRStyleBrush@@QAEXN@Z PROC			; OGRStyleBrush::SetAngle, COMDAT
; _this$ = ecx
; Line 312
	push	ebp
	mov	ebp, esp
	fld	QWORD PTR _dfAngle$[ebp]
	sub	esp, 8
	fstp	QWORD PTR [esp]
	push	3
	call	?SetParamDbl@OGRStyleBrush@@QAEXW4ogr_style_tool_param_brush_id@@N@Z ; OGRStyleBrush::SetParamDbl
	pop	ebp
	ret	8
?SetAngle@OGRStyleBrush@@QAEXN@Z ENDP			; OGRStyleBrush::SetAngle
_TEXT	ENDS
PUBLIC	?Size@OGRStyleBrush@@QAENAAH@Z			; OGRStyleBrush::Size
; Function compile flags: /Ogtp
;	COMDAT ?Size@OGRStyleBrush@@QAENAAH@Z
_TEXT	SEGMENT
_bDefault$ = 8						; size = 4
?Size@OGRStyleBrush@@QAENAAH@Z PROC			; OGRStyleBrush::Size, COMDAT
; _this$ = ecx
; Line 313
	push	ebp
	mov	ebp, esp
	mov	eax, DWORD PTR _bDefault$[ebp]
	push	eax
	push	4
	call	?GetParamDbl@OGRStyleBrush@@QAENW4ogr_style_tool_param_brush_id@@AAH@Z ; OGRStyleBrush::GetParamDbl
	pop	ebp
	ret	4
?Size@OGRStyleBrush@@QAENAAH@Z ENDP			; OGRStyleBrush::Size
_TEXT	ENDS
PUBLIC	?SetSize@OGRStyleBrush@@QAEXN@Z			; OGRStyleBrush::SetSize
; Function compile flags: /Ogtp
;	COMDAT ?SetSize@OGRStyleBrush@@QAEXN@Z
_TEXT	SEGMENT
_dfSize$ = 8						; size = 8
?SetSize@OGRStyleBrush@@QAEXN@Z PROC			; OGRStyleBrush::SetSize, COMDAT
; _this$ = ecx
; Line 314
	push	ebp
	mov	ebp, esp
	fld	QWORD PTR _dfSize$[ebp]
	sub	esp, 8
	fstp	QWORD PTR [esp]
	push	4
	call	?SetParamDbl@OGRStyleBrush@@QAEXW4ogr_style_tool_param_brush_id@@N@Z ; OGRStyleBrush::SetParamDbl
	pop	ebp
	ret	8
?SetSize@OGRStyleBrush@@QAEXN@Z ENDP			; OGRStyleBrush::SetSize
_TEXT	ENDS
PUBLIC	?SpacingX@OGRStyleBrush@@QAENAAH@Z		; OGRStyleBrush::SpacingX
; Function compile flags: /Ogtp
;	COMDAT ?SpacingX@OGRStyleBrush@@QAENAAH@Z
_TEXT	SEGMENT
_bDefault$ = 8						; size = 4
?SpacingX@OGRStyleBrush@@QAENAAH@Z PROC			; OGRStyleBrush::SpacingX, COMDAT
; _this$ = ecx
; Line 315
	push	ebp
	mov	ebp, esp
	mov	eax, DWORD PTR _bDefault$[ebp]
	push	eax
	push	5
	call	?GetParamDbl@OGRStyleBrush@@QAENW4ogr_style_tool_param_brush_id@@AAH@Z ; OGRStyleBrush::GetParamDbl
	pop	ebp
	ret	4
?SpacingX@OGRStyleBrush@@QAENAAH@Z ENDP			; OGRStyleBrush::SpacingX
_TEXT	ENDS
PUBLIC	?SetSpacingX@OGRStyleBrush@@QAEXN@Z		; OGRStyleBrush::SetSpacingX
; Function compile flags: /Ogtp
;	COMDAT ?SetSpacingX@OGRStyleBrush@@QAEXN@Z
_TEXT	SEGMENT
_dfX$ = 8						; size = 8
?SetSpacingX@OGRStyleBrush@@QAEXN@Z PROC		; OGRStyleBrush::SetSpacingX, COMDAT
; _this$ = ecx
; Line 316
	push	ebp
	mov	ebp, esp
	fld	QWORD PTR _dfX$[ebp]
	sub	esp, 8
	fstp	QWORD PTR [esp]
	push	5
	call	?SetParamDbl@OGRStyleBrush@@QAEXW4ogr_style_tool_param_brush_id@@N@Z ; OGRStyleBrush::SetParamDbl
	pop	ebp
	ret	8
?SetSpacingX@OGRStyleBrush@@QAEXN@Z ENDP		; OGRStyleBrush::SetSpacingX
_TEXT	ENDS
PUBLIC	?SpacingY@OGRStyleBrush@@QAENAAH@Z		; OGRStyleBrush::SpacingY
; Function compile flags: /Ogtp
;	COMDAT ?SpacingY@OGRStyleBrush@@QAENAAH@Z
_TEXT	SEGMENT
_bDefault$ = 8						; size = 4
?SpacingY@OGRStyleBrush@@QAENAAH@Z PROC			; OGRStyleBrush::SpacingY, COMDAT
; _this$ = ecx
; Line 317
	push	ebp
	mov	ebp, esp
	mov	eax, DWORD PTR _bDefault$[ebp]
	push	eax
	push	6
	call	?GetParamDbl@OGRStyleBrush@@QAENW4ogr_style_tool_param_brush_id@@AAH@Z ; OGRStyleBrush::GetParamDbl
	pop	ebp
	ret	4
?SpacingY@OGRStyleBrush@@QAENAAH@Z ENDP			; OGRStyleBrush::SpacingY
_TEXT	ENDS
PUBLIC	?SetSpacingY@OGRStyleBrush@@QAEXN@Z		; OGRStyleBrush::SetSpacingY
; Function compile flags: /Ogtp
;	COMDAT ?SetSpacingY@OGRStyleBrush@@QAEXN@Z
_TEXT	SEGMENT
_dfY$ = 8						; size = 8
?SetSpacingY@OGRStyleBrush@@QAEXN@Z PROC		; OGRStyleBrush::SetSpacingY, COMDAT
; _this$ = ecx
; Line 318
	push	ebp
	mov	ebp, esp
	fld	QWORD PTR _dfY$[ebp]
	sub	esp, 8
	fstp	QWORD PTR [esp]
	push	6
	call	?SetParamDbl@OGRStyleBrush@@QAEXW4ogr_style_tool_param_brush_id@@N@Z ; OGRStyleBrush::SetParamDbl
	pop	ebp
	ret	8
?SetSpacingY@OGRStyleBrush@@QAEXN@Z ENDP		; OGRStyleBrush::SetSpacingY
_TEXT	ENDS
PUBLIC	?Priority@OGRStyleBrush@@QAEHAAH@Z		; OGRStyleBrush::Priority
EXTRN	?GetParamNum@OGRStyleBrush@@QAEHW4ogr_style_tool_param_brush_id@@AAH@Z:PROC ; OGRStyleBrush::GetParamNum
; Function compile flags: /Ogtp
;	COMDAT ?Priority@OGRStyleBrush@@QAEHAAH@Z
_TEXT	SEGMENT
_bDefault$ = 8						; size = 4
?Priority@OGRStyleBrush@@QAEHAAH@Z PROC			; OGRStyleBrush::Priority, COMDAT
; _this$ = ecx
; Line 319
	push	ebp
	mov	ebp, esp
	mov	eax, DWORD PTR _bDefault$[ebp]
	push	eax
	push	7
	call	?GetParamNum@OGRStyleBrush@@QAEHW4ogr_style_tool_param_brush_id@@AAH@Z ; OGRStyleBrush::GetParamNum
	pop	ebp
	ret	4
?Priority@OGRStyleBrush@@QAEHAAH@Z ENDP			; OGRStyleBrush::Priority
_TEXT	ENDS
PUBLIC	?SetPriority@OGRStyleBrush@@QAEXH@Z		; OGRStyleBrush::SetPriority
EXTRN	?SetParamNum@OGRStyleBrush@@QAEXW4ogr_style_tool_param_brush_id@@H@Z:PROC ; OGRStyleBrush::SetParamNum
; Function compile flags: /Ogtp
;	COMDAT ?SetPriority@OGRStyleBrush@@QAEXH@Z
_TEXT	SEGMENT
_nPriority$ = 8						; size = 4
?SetPriority@OGRStyleBrush@@QAEXH@Z PROC		; OGRStyleBrush::SetPriority, COMDAT
; _this$ = ecx
; Line 320
	push	ebp
	mov	ebp, esp
	mov	eax, DWORD PTR _nPriority$[ebp]
	push	eax
	push	7
	call	?SetParamNum@OGRStyleBrush@@QAEXW4ogr_style_tool_param_brush_id@@H@Z ; OGRStyleBrush::SetParamNum
	pop	ebp
	ret	4
?SetPriority@OGRStyleBrush@@QAEXH@Z ENDP		; OGRStyleBrush::SetPriority
_TEXT	ENDS
PUBLIC	??_7OGRStyleBrush@@6B@				; OGRStyleBrush::`vftable'
PUBLIC	??0OGRStyleBrush@@QAE@ABV0@@Z			; OGRStyleBrush::OGRStyleBrush
PUBLIC	??_R4OGRStyleBrush@@6B@				; OGRStyleBrush::`RTTI Complete Object Locator'
PUBLIC	??_R0?AVOGRStyleBrush@@@8			; OGRStyleBrush `RTTI Type Descriptor'
PUBLIC	??_R3OGRStyleBrush@@8				; OGRStyleBrush::`RTTI Class Hierarchy Descriptor'
PUBLIC	??_R2OGRStyleBrush@@8				; OGRStyleBrush::`RTTI Base Class Array'
PUBLIC	??_R1A@?0A@EA@OGRStyleBrush@@8			; OGRStyleBrush::`RTTI Base Class Descriptor at (0,-1,0,64)'
PUBLIC	??_EOGRStyleBrush@@UAEPAXI@Z			; OGRStyleBrush::`vector deleting destructor'
EXTRN	?Parse@OGRStyleBrush@@EAEHXZ:PROC		; OGRStyleBrush::Parse
EXTRN	?GetStyleString@OGRStyleBrush@@UAEPBDXZ:PROC	; OGRStyleBrush::GetStyleString
;	COMDAT ??_R1A@?0A@EA@OGRStyleBrush@@8
rdata$r	SEGMENT
??_R1A@?0A@EA@OGRStyleBrush@@8 DD FLAT:??_R0?AVOGRStyleBrush@@@8 ; OGRStyleBrush::`RTTI Base Class Descriptor at (0,-1,0,64)'
	DD	01H
	DD	00H
	DD	0ffffffffH
	DD	00H
	DD	040H
	DD	FLAT:??_R3OGRStyleBrush@@8
rdata$r	ENDS
;	COMDAT ??_R2OGRStyleBrush@@8
rdata$r	SEGMENT
??_R2OGRStyleBrush@@8 DD FLAT:??_R1A@?0A@EA@OGRStyleBrush@@8 ; OGRStyleBrush::`RTTI Base Class Array'
	DD	FLAT:??_R1A@?0A@EA@OGRStyleTool@@8
rdata$r	ENDS
;	COMDAT ??_R3OGRStyleBrush@@8
rdata$r	SEGMENT
??_R3OGRStyleBrush@@8 DD 00H				; OGRStyleBrush::`RTTI Class Hierarchy Descriptor'
	DD	00H
	DD	02H
	DD	FLAT:??_R2OGRStyleBrush@@8
rdata$r	ENDS
;	COMDAT ??_R0?AVOGRStyleBrush@@@8
_DATA	SEGMENT
??_R0?AVOGRStyleBrush@@@8 DD FLAT:??_7type_info@@6B@	; OGRStyleBrush `RTTI Type Descriptor'
	DD	00H
	DB	'.?AVOGRStyleBrush@@', 00H
_DATA	ENDS
;	COMDAT ??_R4OGRStyleBrush@@6B@
rdata$r	SEGMENT
??_R4OGRStyleBrush@@6B@ DD 00H				; OGRStyleBrush::`RTTI Complete Object Locator'
	DD	00H
	DD	00H
	DD	FLAT:??_R0?AVOGRStyleBrush@@@8
	DD	FLAT:??_R3OGRStyleBrush@@8
rdata$r	ENDS
;	COMDAT ??_7OGRStyleBrush@@6B@
CONST	SEGMENT
??_7OGRStyleBrush@@6B@ DD FLAT:??_R4OGRStyleBrush@@6B@	; OGRStyleBrush::`vftable'
	DD	FLAT:?Parse@OGRStyleBrush@@EAEHXZ
	DD	FLAT:??_EOGRStyleBrush@@UAEPAXI@Z
	DD	FLAT:?GetStyleString@OGRStyleBrush@@UAEPBDXZ
; Function compile flags: /Ogtp
CONST	ENDS
;	COMDAT ??0OGRStyleBrush@@QAE@ABV0@@Z
_TEXT	SEGMENT
___that$ = 8						; size = 4
??0OGRStyleBrush@@QAE@ABV0@@Z PROC			; OGRStyleBrush::OGRStyleBrush, COMDAT
; _this$ = ecx
	push	ebp
	mov	ebp, esp
	mov	eax, ecx
	mov	ecx, DWORD PTR ___that$[ebp]
	mov	DWORD PTR [eax], OFFSET ??_7OGRStyleTool@@6B@
	mov	edx, DWORD PTR [ecx+8]
	mov	DWORD PTR [eax+8], edx
	mov	edx, DWORD PTR [ecx+12]
	mov	DWORD PTR [eax+12], edx
	fld	QWORD PTR [ecx+16]
	fstp	QWORD PTR [eax+16]
	mov	edx, DWORD PTR [ecx+24]
	mov	DWORD PTR [eax+24], edx
	mov	edx, DWORD PTR [ecx+28]
	mov	DWORD PTR [eax+28], edx
	mov	edx, DWORD PTR [ecx+32]
	mov	DWORD PTR [eax+32], edx
	mov	DWORD PTR [eax], OFFSET ??_7OGRStyleBrush@@6B@
	mov	ecx, DWORD PTR [ecx+40]
	mov	DWORD PTR [eax+40], ecx
	pop	ebp
	ret	4
??0OGRStyleBrush@@QAE@ABV0@@Z ENDP			; OGRStyleBrush::OGRStyleBrush
_TEXT	ENDS
PUBLIC	??4OGRStyleBrush@@QAEAAV0@ABV0@@Z		; OGRStyleBrush::operator=
; Function compile flags: /Ogtp
;	COMDAT ??4OGRStyleBrush@@QAEAAV0@ABV0@@Z
_TEXT	SEGMENT
___that$ = 8						; size = 4
??4OGRStyleBrush@@QAEAAV0@ABV0@@Z PROC			; OGRStyleBrush::operator=, COMDAT
; _this$ = ecx
	push	ebp
	mov	ebp, esp
	mov	eax, ecx
	mov	ecx, DWORD PTR ___that$[ebp]
	mov	edx, DWORD PTR [ecx+8]
	mov	DWORD PTR [eax+8], edx
	mov	edx, DWORD PTR [ecx+12]
	mov	DWORD PTR [eax+12], edx
	fld	QWORD PTR [ecx+16]
	fstp	QWORD PTR [eax+16]
	mov	edx, DWORD PTR [ecx+24]
	mov	DWORD PTR [eax+24], edx
	mov	edx, DWORD PTR [ecx+28]
	mov	DWORD PTR [eax+28], edx
	mov	edx, DWORD PTR [ecx+32]
	mov	DWORD PTR [eax+32], edx
	mov	ecx, DWORD PTR [ecx+40]
	mov	DWORD PTR [eax+40], ecx
	pop	ebp
	ret	4
??4OGRStyleBrush@@QAEAAV0@ABV0@@Z ENDP			; OGRStyleBrush::operator=
_TEXT	ENDS
PUBLIC	??_GOGRStyleBrush@@UAEPAXI@Z			; OGRStyleBrush::`scalar deleting destructor'
EXTRN	??1OGRStyleBrush@@UAE@XZ:PROC			; OGRStyleBrush::~OGRStyleBrush
; Function compile flags: /Ogtp
;	COMDAT ??_GOGRStyleBrush@@UAEPAXI@Z
_TEXT	SEGMENT
___flags$ = 8						; size = 4
??_GOGRStyleBrush@@UAEPAXI@Z PROC			; OGRStyleBrush::`scalar deleting destructor', COMDAT
; _this$ = ecx
	push	ebp
	mov	ebp, esp
	push	esi
	mov	esi, ecx
	call	??1OGRStyleBrush@@UAE@XZ		; OGRStyleBrush::~OGRStyleBrush
	test	BYTE PTR ___flags$[ebp], 1
	je	SHORT $LN4@scalar@16
	push	esi
	call	??3@YAXPAX@Z				; operator delete
	add	esp, 4
$LN4@scalar@16:
	mov	eax, esi
	pop	esi
	pop	ebp
	ret	4
??_GOGRStyleBrush@@UAEPAXI@Z ENDP			; OGRStyleBrush::`scalar deleting destructor'
; Function compile flags: /Ogtp
_TEXT	ENDS
;	COMDAT ??_EOGRStyleBrush@@UAEPAXI@Z
_TEXT	SEGMENT
___flags$ = 8						; size = 4
??_EOGRStyleBrush@@UAEPAXI@Z PROC			; OGRStyleBrush::`vector deleting destructor', COMDAT
; _this$ = ecx
	push	ebp
	mov	ebp, esp
	push	ebx
	mov	bl, BYTE PTR ___flags$[ebp]
	push	esi
	mov	esi, ecx
	test	bl, 2
	je	SHORT $LN3@vector@16
	mov	eax, DWORD PTR [esi-4]
	push	edi
	push	OFFSET ??1OGRStyleBrush@@UAE@XZ		; OGRStyleBrush::~OGRStyleBrush
	lea	edi, DWORD PTR [esi-4]
	push	eax
	push	48					; 00000030H
	push	esi
	call	??_M@YGXPAXIHP6EX0@Z@Z
	test	bl, 1
	je	SHORT $LN2@vector@16
	push	edi
	call	??_V@YAXPAX@Z				; operator delete[]
	add	esp, 4
$LN2@vector@16:
	mov	eax, edi
	pop	edi
	pop	esi
	pop	ebx
	pop	ebp
	ret	4
$LN3@vector@16:
	call	??1OGRStyleBrush@@UAE@XZ		; OGRStyleBrush::~OGRStyleBrush
	test	bl, 1
	je	SHORT $LN1@vector@16
	push	esi
	call	??3@YAXPAX@Z				; operator delete
	add	esp, 4
$LN1@vector@16:
	mov	eax, esi
	pop	esi
	pop	ebx
	pop	ebp
	ret	4
??_EOGRStyleBrush@@UAEPAXI@Z ENDP			; OGRStyleBrush::`vector deleting destructor'
_TEXT	ENDS
PUBLIC	?Id@OGRStyleSymbol@@QAEPBDAAH@Z			; OGRStyleSymbol::Id
EXTRN	?GetParamStr@OGRStyleSymbol@@QAEPBDW4ogr_style_tool_param_symbol_id@@AAH@Z:PROC ; OGRStyleSymbol::GetParamStr
; Function compile flags: /Ogtp
;	COMDAT ?Id@OGRStyleSymbol@@QAEPBDAAH@Z
_TEXT	SEGMENT
_bDefault$ = 8						; size = 4
?Id@OGRStyleSymbol@@QAEPBDAAH@Z PROC			; OGRStyleSymbol::Id, COMDAT
; _this$ = ecx
; Line 354
	push	ebp
	mov	ebp, esp
	mov	eax, DWORD PTR _bDefault$[ebp]
	push	eax
	push	0
	call	?GetParamStr@OGRStyleSymbol@@QAEPBDW4ogr_style_tool_param_symbol_id@@AAH@Z ; OGRStyleSymbol::GetParamStr
	pop	ebp
	ret	4
?Id@OGRStyleSymbol@@QAEPBDAAH@Z ENDP			; OGRStyleSymbol::Id
_TEXT	ENDS
PUBLIC	?SetId@OGRStyleSymbol@@QAEXPBD@Z		; OGRStyleSymbol::SetId
EXTRN	?SetParamStr@OGRStyleSymbol@@QAEXW4ogr_style_tool_param_symbol_id@@PBD@Z:PROC ; OGRStyleSymbol::SetParamStr
; Function compile flags: /Ogtp
;	COMDAT ?SetId@OGRStyleSymbol@@QAEXPBD@Z
_TEXT	SEGMENT
_pszId$ = 8						; size = 4
?SetId@OGRStyleSymbol@@QAEXPBD@Z PROC			; OGRStyleSymbol::SetId, COMDAT
; _this$ = ecx
; Line 355
	push	ebp
	mov	ebp, esp
	mov	eax, DWORD PTR _pszId$[ebp]
	push	eax
	push	0
	call	?SetParamStr@OGRStyleSymbol@@QAEXW4ogr_style_tool_param_symbol_id@@PBD@Z ; OGRStyleSymbol::SetParamStr
	pop	ebp
	ret	4
?SetId@OGRStyleSymbol@@QAEXPBD@Z ENDP			; OGRStyleSymbol::SetId
_TEXT	ENDS
PUBLIC	?Angle@OGRStyleSymbol@@QAENAAH@Z		; OGRStyleSymbol::Angle
EXTRN	?GetParamDbl@OGRStyleSymbol@@QAENW4ogr_style_tool_param_symbol_id@@AAH@Z:PROC ; OGRStyleSymbol::GetParamDbl
; Function compile flags: /Ogtp
;	COMDAT ?Angle@OGRStyleSymbol@@QAENAAH@Z
_TEXT	SEGMENT
_bDefault$ = 8						; size = 4
?Angle@OGRStyleSymbol@@QAENAAH@Z PROC			; OGRStyleSymbol::Angle, COMDAT
; _this$ = ecx
; Line 356
	push	ebp
	mov	ebp, esp
	mov	eax, DWORD PTR _bDefault$[ebp]
	push	eax
	push	1
	call	?GetParamDbl@OGRStyleSymbol@@QAENW4ogr_style_tool_param_symbol_id@@AAH@Z ; OGRStyleSymbol::GetParamDbl
	pop	ebp
	ret	4
?Angle@OGRStyleSymbol@@QAENAAH@Z ENDP			; OGRStyleSymbol::Angle
_TEXT	ENDS
PUBLIC	?SetAngle@OGRStyleSymbol@@QAEXN@Z		; OGRStyleSymbol::SetAngle
EXTRN	?SetParamDbl@OGRStyleSymbol@@QAEXW4ogr_style_tool_param_symbol_id@@N@Z:PROC ; OGRStyleSymbol::SetParamDbl
; Function compile flags: /Ogtp
;	COMDAT ?SetAngle@OGRStyleSymbol@@QAEXN@Z
_TEXT	SEGMENT
_dfAngle$ = 8						; size = 8
?SetAngle@OGRStyleSymbol@@QAEXN@Z PROC			; OGRStyleSymbol::SetAngle, COMDAT
; _this$ = ecx
; Line 357
	push	ebp
	mov	ebp, esp
	fld	QWORD PTR _dfAngle$[ebp]
	sub	esp, 8
	fstp	QWORD PTR [esp]
	push	1
	call	?SetParamDbl@OGRStyleSymbol@@QAEXW4ogr_style_tool_param_symbol_id@@N@Z ; OGRStyleSymbol::SetParamDbl
	pop	ebp
	ret	8
?SetAngle@OGRStyleSymbol@@QAEXN@Z ENDP			; OGRStyleSymbol::SetAngle
_TEXT	ENDS
PUBLIC	?Color@OGRStyleSymbol@@QAEPBDAAH@Z		; OGRStyleSymbol::Color
; Function compile flags: /Ogtp
;	COMDAT ?Color@OGRStyleSymbol@@QAEPBDAAH@Z
_TEXT	SEGMENT
_bDefault$ = 8						; size = 4
?Color@OGRStyleSymbol@@QAEPBDAAH@Z PROC			; OGRStyleSymbol::Color, COMDAT
; _this$ = ecx
; Line 358
	push	ebp
	mov	ebp, esp
	mov	eax, DWORD PTR _bDefault$[ebp]
	push	eax
	push	2
	call	?GetParamStr@OGRStyleSymbol@@QAEPBDW4ogr_style_tool_param_symbol_id@@AAH@Z ; OGRStyleSymbol::GetParamStr
	pop	ebp
	ret	4
?Color@OGRStyleSymbol@@QAEPBDAAH@Z ENDP			; OGRStyleSymbol::Color
_TEXT	ENDS
PUBLIC	?SetColor@OGRStyleSymbol@@QAEXPBD@Z		; OGRStyleSymbol::SetColor
; Function compile flags: /Ogtp
;	COMDAT ?SetColor@OGRStyleSymbol@@QAEXPBD@Z
_TEXT	SEGMENT
_pszColor$ = 8						; size = 4
?SetColor@OGRStyleSymbol@@QAEXPBD@Z PROC		; OGRStyleSymbol::SetColor, COMDAT
; _this$ = ecx
; Line 359
	push	ebp
	mov	ebp, esp
	mov	eax, DWORD PTR _pszColor$[ebp]
	push	eax
	push	2
	call	?SetParamStr@OGRStyleSymbol@@QAEXW4ogr_style_tool_param_symbol_id@@PBD@Z ; OGRStyleSymbol::SetParamStr
	pop	ebp
	ret	4
?SetColor@OGRStyleSymbol@@QAEXPBD@Z ENDP		; OGRStyleSymbol::SetColor
_TEXT	ENDS
PUBLIC	?Size@OGRStyleSymbol@@QAENAAH@Z			; OGRStyleSymbol::Size
; Function compile flags: /Ogtp
;	COMDAT ?Size@OGRStyleSymbol@@QAENAAH@Z
_TEXT	SEGMENT
_bDefault$ = 8						; size = 4
?Size@OGRStyleSymbol@@QAENAAH@Z PROC			; OGRStyleSymbol::Size, COMDAT
; _this$ = ecx
; Line 360
	push	ebp
	mov	ebp, esp
	mov	eax, DWORD PTR _bDefault$[ebp]
	push	eax
	push	3
	call	?GetParamDbl@OGRStyleSymbol@@QAENW4ogr_style_tool_param_symbol_id@@AAH@Z ; OGRStyleSymbol::GetParamDbl
	pop	ebp
	ret	4
?Size@OGRStyleSymbol@@QAENAAH@Z ENDP			; OGRStyleSymbol::Size
_TEXT	ENDS
PUBLIC	?SetSize@OGRStyleSymbol@@QAEXN@Z		; OGRStyleSymbol::SetSize
; Function compile flags: /Ogtp
;	COMDAT ?SetSize@OGRStyleSymbol@@QAEXN@Z
_TEXT	SEGMENT
_dfSize$ = 8						; size = 8
?SetSize@OGRStyleSymbol@@QAEXN@Z PROC			; OGRStyleSymbol::SetSize, COMDAT
; _this$ = ecx
; Line 361
	push	ebp
	mov	ebp, esp
	fld	QWORD PTR _dfSize$[ebp]
	sub	esp, 8
	fstp	QWORD PTR [esp]
	push	3
	call	?SetParamDbl@OGRStyleSymbol@@QAEXW4ogr_style_tool_param_symbol_id@@N@Z ; OGRStyleSymbol::SetParamDbl
	pop	ebp
	ret	8
?SetSize@OGRStyleSymbol@@QAEXN@Z ENDP			; OGRStyleSymbol::SetSize
_TEXT	ENDS
PUBLIC	?SpacingX@OGRStyleSymbol@@QAENAAH@Z		; OGRStyleSymbol::SpacingX
; Function compile flags: /Ogtp
